	.file	"bead.cpp"
	.section .rdata,"dr"
__ZStL19piecewise_construct:
	.space 1
	.section	.text$_ZN9__gnu_cxx5__ops16__iter_less_iterEv,"x"
	.linkonce discard
	.globl	__ZN9__gnu_cxx5__ops16__iter_less_iterEv
	.def	__ZN9__gnu_cxx5__ops16__iter_less_iterEv;	.scl	2;	.type	32;	.endef
__ZN9__gnu_cxx5__ops16__iter_less_iterEv:
LFB239:
	.cfi_startproc
	pushl	%ebp
	.cfi_def_cfa_offset 8
	.cfi_offset 5, -8
	movl	%esp, %ebp
	.cfi_def_cfa_register 5
	popl	%ebp
	.cfi_restore 5
	.cfi_def_cfa 4, 4
	ret
	.cfi_endproc
LFE239:
	.section	.text$_ZN9__gnu_cxx5__ops15__iter_less_valEv,"x"
	.linkonce discard
	.globl	__ZN9__gnu_cxx5__ops15__iter_less_valEv
	.def	__ZN9__gnu_cxx5__ops15__iter_less_valEv;	.scl	2;	.type	32;	.endef
__ZN9__gnu_cxx5__ops15__iter_less_valEv:
LFB241:
	.cfi_startproc
	pushl	%ebp
	.cfi_def_cfa_offset 8
	.cfi_offset 5, -8
	movl	%esp, %ebp
	.cfi_def_cfa_register 5
	popl	%ebp
	.cfi_restore 5
	.cfi_def_cfa 4, 4
	ret
	.cfi_endproc
LFE241:
	.section	.text$_ZN9__gnu_cxx5__ops15__iter_comp_valENS0_15_Iter_less_iterE,"x"
	.linkonce discard
	.globl	__ZN9__gnu_cxx5__ops15__iter_comp_valENS0_15_Iter_less_iterE
	.def	__ZN9__gnu_cxx5__ops15__iter_comp_valENS0_15_Iter_less_iterE;	.scl	2;	.type	32;	.endef
__ZN9__gnu_cxx5__ops15__iter_comp_valENS0_15_Iter_less_iterE:
LFB242:
	.cfi_startproc
	pushl	%ebp
	.cfi_def_cfa_offset 8
	.cfi_offset 5, -8
	movl	%esp, %ebp
	.cfi_def_cfa_register 5
	popl	%ebp
	.cfi_restore 5
	.cfi_def_cfa 4, 4
	ret
	.cfi_endproc
LFE242:
	.section	.text$_ZN9__gnu_cxx5__ops15__val_comp_iterENS0_15_Iter_less_iterE,"x"
	.linkonce discard
	.globl	__ZN9__gnu_cxx5__ops15__val_comp_iterENS0_15_Iter_less_iterE
	.def	__ZN9__gnu_cxx5__ops15__val_comp_iterENS0_15_Iter_less_iterE;	.scl	2;	.type	32;	.endef
__ZN9__gnu_cxx5__ops15__val_comp_iterENS0_15_Iter_less_iterE:
LFB245:
	.cfi_startproc
	pushl	%ebp
	.cfi_def_cfa_offset 8
	.cfi_offset 5, -8
	movl	%esp, %ebp
	.cfi_def_cfa_register 5
	popl	%ebp
	.cfi_restore 5
	.cfi_def_cfa 4, 4
	ret
	.cfi_endproc
LFE245:
	.section	.text$_ZN9__gnu_cxx5__ops20__iter_equal_to_iterEv,"x"
	.linkonce discard
	.globl	__ZN9__gnu_cxx5__ops20__iter_equal_to_iterEv
	.def	__ZN9__gnu_cxx5__ops20__iter_equal_to_iterEv;	.scl	2;	.type	32;	.endef
__ZN9__gnu_cxx5__ops20__iter_equal_to_iterEv:
LFB247:
	.cfi_startproc
	pushl	%ebp
	.cfi_def_cfa_offset 8
	.cfi_offset 5, -8
	movl	%esp, %ebp
	.cfi_def_cfa_register 5
	popl	%ebp
	.cfi_restore 5
	.cfi_def_cfa 4, 4
	ret
	.cfi_endproc
LFE247:
	.section	.text$_ZSt4__lgi,"x"
	.linkonce discard
	.globl	__ZSt4__lgi
	.def	__ZSt4__lgi;	.scl	2;	.type	32;	.endef
__ZSt4__lgi:
LFB326:
	.cfi_startproc
	pushl	%ebp
	.cfi_def_cfa_offset 8
	.cfi_offset 5, -8
	movl	%esp, %ebp
	.cfi_def_cfa_register 5
	movl	8(%ebp), %eax
	bsrl	%eax, %eax
	xorl	$31, %eax
	movl	$31, %edx
	subl	%eax, %edx
	movl	%edx, %eax
	popl	%ebp
	.cfi_restore 5
	.cfi_def_cfa 4, 4
	ret
	.cfi_endproc
LFE326:
	.section	.text$_ZNSt11char_traitsIcE7compareEPKcS2_j,"x"
	.linkonce discard
	.globl	__ZNSt11char_traitsIcE7compareEPKcS2_j
	.def	__ZNSt11char_traitsIcE7compareEPKcS2_j;	.scl	2;	.type	32;	.endef
__ZNSt11char_traitsIcE7compareEPKcS2_j:
LFB361:
	.cfi_startproc
	pushl	%ebp
	.cfi_def_cfa_offset 8
	.cfi_offset 5, -8
	movl	%esp, %ebp
	.cfi_def_cfa_register 5
	subl	$24, %esp
	cmpl	$0, 16(%ebp)
	jne	L14
	movl	$0, %eax
	jmp	L15
L14:
	movl	16(%ebp), %eax
	movl	%eax, 8(%esp)
	movl	12(%ebp), %eax
	movl	%eax, 4(%esp)
	movl	8(%ebp), %eax
	movl	%eax, (%esp)
	call	_memcmp
L15:
	leave
	.cfi_restore 5
	.cfi_def_cfa 4, 4
	ret
	.cfi_endproc
LFE361:
	.section	.text$_ZNSt11char_traitsIcE6lengthEPKc,"x"
	.linkonce discard
	.globl	__ZNSt11char_traitsIcE6lengthEPKc
	.def	__ZNSt11char_traitsIcE6lengthEPKc;	.scl	2;	.type	32;	.endef
__ZNSt11char_traitsIcE6lengthEPKc:
LFB362:
	.cfi_startproc
	pushl	%ebp
	.cfi_def_cfa_offset 8
	.cfi_offset 5, -8
	movl	%esp, %ebp
	.cfi_def_cfa_register 5
	pushl	%edi
	.cfi_offset 7, -12
	movl	8(%ebp), %eax
	movl	$-1, %ecx
	movl	%eax, %edx
	movl	$0, %eax
	movl	%edx, %edi
	repnz scasb
	movl	%ecx, %eax
	notl	%eax
	subl	$1, %eax
	popl	%edi
	.cfi_restore 7
	popl	%ebp
	.cfi_restore 5
	.cfi_def_cfa 4, 4
	ret
	.cfi_endproc
LFE362:
	.text
	.def	___gthread_active_p;	.scl	3;	.type	32;	.endef
___gthread_active_p:
LFB416:
	.cfi_startproc
	pushl	%ebp
	.cfi_def_cfa_offset 8
	.cfi_offset 5, -8
	movl	%esp, %ebp
	.cfi_def_cfa_register 5
	movl	__CRT_MT, %eax
	popl	%ebp
	.cfi_restore 5
	.cfi_def_cfa 4, 4
	ret
	.cfi_endproc
LFE416:
	.def	__ZN9__gnu_cxxL18__exchange_and_addEPVii;	.scl	3;	.type	32;	.endef
__ZN9__gnu_cxxL18__exchange_and_addEPVii:
LFB432:
	.cfi_startproc
	pushl	%ebp
	.cfi_def_cfa_offset 8
	.cfi_offset 5, -8
	movl	%esp, %ebp
	.cfi_def_cfa_register 5
	movl	12(%ebp), %edx
	movl	8(%ebp), %eax
	lock xaddl	%edx, (%eax)
	movl	%edx, %eax
	popl	%ebp
	.cfi_restore 5
	.cfi_def_cfa 4, 4
	ret
	.cfi_endproc
LFE432:
	.def	__ZN9__gnu_cxxL25__exchange_and_add_singleEPii;	.scl	3;	.type	32;	.endef
__ZN9__gnu_cxxL25__exchange_and_add_singleEPii:
LFB434:
	.cfi_startproc
	pushl	%ebp
	.cfi_def_cfa_offset 8
	.cfi_offset 5, -8
	movl	%esp, %ebp
	.cfi_def_cfa_register 5
	subl	$16, %esp
	movl	8(%ebp), %eax
	movl	(%eax), %eax
	movl	%eax, -4(%ebp)
	movl	8(%ebp), %eax
	movl	(%eax), %edx
	movl	12(%ebp), %eax
	addl	%eax, %edx
	movl	8(%ebp), %eax
	movl	%edx, (%eax)
	movl	-4(%ebp), %eax
	leave
	.cfi_restore 5
	.cfi_def_cfa 4, 4
	ret
	.cfi_endproc
LFE434:
	.def	__ZN9__gnu_cxxL27__exchange_and_add_dispatchEPii;	.scl	3;	.type	32;	.endef
__ZN9__gnu_cxxL27__exchange_and_add_dispatchEPii:
LFB436:
	.cfi_startproc
	pushl	%ebp
	.cfi_def_cfa_offset 8
	.cfi_offset 5, -8
	movl	%esp, %ebp
	.cfi_def_cfa_register 5
	subl	$8, %esp
	call	___gthread_active_p
	testl	%eax, %eax
	setne	%al
	testb	%al, %al
	je	L25
	movl	12(%ebp), %eax
	movl	%eax, 4(%esp)
	movl	8(%ebp), %eax
	movl	%eax, (%esp)
	call	__ZN9__gnu_cxxL18__exchange_and_addEPVii
	jmp	L26
L25:
	movl	12(%ebp), %eax
	movl	%eax, 4(%esp)
	movl	8(%ebp), %eax
	movl	%eax, (%esp)
	call	__ZN9__gnu_cxxL25__exchange_and_add_singleEPii
L26:
	leave
	.cfi_restore 5
	.cfi_def_cfa 4, 4
	ret
	.cfi_endproc
LFE436:
	.section	.text$_ZnwjPv,"x"
	.linkonce discard
	.globl	__ZnwjPv
	.def	__ZnwjPv;	.scl	2;	.type	32;	.endef
__ZnwjPv:
LFB444:
	.cfi_startproc
	pushl	%ebp
	.cfi_def_cfa_offset 8
	.cfi_offset 5, -8
	movl	%esp, %ebp
	.cfi_def_cfa_register 5
	movl	12(%ebp), %eax
	popl	%ebp
	.cfi_restore 5
	.cfi_def_cfa 4, 4
	ret
	.cfi_endproc
LFE444:
	.section	.text$_ZdlPvS_,"x"
	.linkonce discard
	.globl	__ZdlPvS_
	.def	__ZdlPvS_;	.scl	2;	.type	32;	.endef
__ZdlPvS_:
LFB446:
	.cfi_startproc
	pushl	%ebp
	.cfi_def_cfa_offset 8
	.cfi_offset 5, -8
	movl	%esp, %ebp
	.cfi_def_cfa_register 5
	nop
	popl	%ebp
	.cfi_restore 5
	.cfi_def_cfa 4, 4
	ret
	.cfi_endproc
LFE446:
	.section	.text$_ZStanSt13_Ios_FmtflagsS_,"x"
	.linkonce discard
	.globl	__ZStanSt13_Ios_FmtflagsS_
	.def	__ZStanSt13_Ios_FmtflagsS_;	.scl	2;	.type	32;	.endef
__ZStanSt13_Ios_FmtflagsS_:
LFB1039:
	.cfi_startproc
	pushl	%ebp
	.cfi_def_cfa_offset 8
	.cfi_offset 5, -8
	movl	%esp, %ebp
	.cfi_def_cfa_register 5
	movl	8(%ebp), %eax
	andl	12(%ebp), %eax
	popl	%ebp
	.cfi_restore 5
	.cfi_def_cfa 4, 4
	ret
	.cfi_endproc
LFE1039:
	.section	.text$_ZStorSt13_Ios_FmtflagsS_,"x"
	.linkonce discard
	.globl	__ZStorSt13_Ios_FmtflagsS_
	.def	__ZStorSt13_Ios_FmtflagsS_;	.scl	2;	.type	32;	.endef
__ZStorSt13_Ios_FmtflagsS_:
LFB1040:
	.cfi_startproc
	pushl	%ebp
	.cfi_def_cfa_offset 8
	.cfi_offset 5, -8
	movl	%esp, %ebp
	.cfi_def_cfa_register 5
	movl	8(%ebp), %eax
	orl	12(%ebp), %eax
	popl	%ebp
	.cfi_restore 5
	.cfi_def_cfa 4, 4
	ret
	.cfi_endproc
LFE1040:
	.section	.text$_ZStcoSt13_Ios_Fmtflags,"x"
	.linkonce discard
	.globl	__ZStcoSt13_Ios_Fmtflags
	.def	__ZStcoSt13_Ios_Fmtflags;	.scl	2;	.type	32;	.endef
__ZStcoSt13_Ios_Fmtflags:
LFB1042:
	.cfi_startproc
	pushl	%ebp
	.cfi_def_cfa_offset 8
	.cfi_offset 5, -8
	movl	%esp, %ebp
	.cfi_def_cfa_register 5
	movl	8(%ebp), %eax
	notl	%eax
	popl	%ebp
	.cfi_restore 5
	.cfi_def_cfa 4, 4
	ret
	.cfi_endproc
LFE1042:
	.section	.text$_ZStoRRSt13_Ios_FmtflagsS_,"x"
	.linkonce discard
	.globl	__ZStoRRSt13_Ios_FmtflagsS_
	.def	__ZStoRRSt13_Ios_FmtflagsS_;	.scl	2;	.type	32;	.endef
__ZStoRRSt13_Ios_FmtflagsS_:
LFB1043:
	.cfi_startproc
	pushl	%ebp
	.cfi_def_cfa_offset 8
	.cfi_offset 5, -8
	movl	%esp, %ebp
	.cfi_def_cfa_register 5
	subl	$24, %esp
	movl	8(%ebp), %eax
	movl	(%eax), %eax
	movl	12(%ebp), %edx
	movl	%edx, 4(%esp)
	movl	%eax, (%esp)
	call	__ZStorSt13_Ios_FmtflagsS_
	movl	%eax, %edx
	movl	8(%ebp), %eax
	movl	%edx, (%eax)
	movl	8(%ebp), %eax
	leave
	.cfi_restore 5
	.cfi_def_cfa 4, 4
	ret
	.cfi_endproc
LFE1043:
	.section	.text$_ZStaNRSt13_Ios_FmtflagsS_,"x"
	.linkonce discard
	.globl	__ZStaNRSt13_Ios_FmtflagsS_
	.def	__ZStaNRSt13_Ios_FmtflagsS_;	.scl	2;	.type	32;	.endef
__ZStaNRSt13_Ios_FmtflagsS_:
LFB1044:
	.cfi_startproc
	pushl	%ebp
	.cfi_def_cfa_offset 8
	.cfi_offset 5, -8
	movl	%esp, %ebp
	.cfi_def_cfa_register 5
	subl	$24, %esp
	movl	8(%ebp), %eax
	movl	(%eax), %eax
	movl	12(%ebp), %edx
	movl	%edx, 4(%esp)
	movl	%eax, (%esp)
	call	__ZStanSt13_Ios_FmtflagsS_
	movl	%eax, %edx
	movl	8(%ebp), %eax
	movl	%edx, (%eax)
	movl	8(%ebp), %eax
	leave
	.cfi_restore 5
	.cfi_def_cfa 4, 4
	ret
	.cfi_endproc
LFE1044:
	.section	.text$_ZNSt8ios_base4setfESt13_Ios_FmtflagsS0_,"x"
	.linkonce discard
	.align 2
	.globl	__ZNSt8ios_base4setfESt13_Ios_FmtflagsS0_
	.def	__ZNSt8ios_base4setfESt13_Ios_FmtflagsS0_;	.scl	2;	.type	32;	.endef
__ZNSt8ios_base4setfESt13_Ios_FmtflagsS0_:
LFB1073:
	.cfi_startproc
	pushl	%ebp
	.cfi_def_cfa_offset 8
	.cfi_offset 5, -8
	movl	%esp, %ebp
	.cfi_def_cfa_register 5
	subl	$56, %esp
	movl	%ecx, -28(%ebp)
	movl	-28(%ebp), %eax
	movl	12(%eax), %eax
	movl	%eax, -12(%ebp)
	movl	12(%ebp), %eax
	movl	%eax, (%esp)
	call	__ZStcoSt13_Ios_Fmtflags
	movl	%eax, %edx
	movl	-28(%ebp), %eax
	addl	$12, %eax
	movl	%edx, 4(%esp)
	movl	%eax, (%esp)
	call	__ZStaNRSt13_Ios_FmtflagsS_
	movl	12(%ebp), %eax
	movl	%eax, 4(%esp)
	movl	8(%ebp), %eax
	movl	%eax, (%esp)
	call	__ZStanSt13_Ios_FmtflagsS_
	movl	%eax, %edx
	movl	-28(%ebp), %eax
	addl	$12, %eax
	movl	%edx, 4(%esp)
	movl	%eax, (%esp)
	call	__ZStoRRSt13_Ios_FmtflagsS_
	movl	-12(%ebp), %eax
	leave
	.cfi_restore 5
	.cfi_def_cfa 4, 4
	ret	$8
	.cfi_endproc
LFE1073:
	.section	.text$_ZSt3hexRSt8ios_base,"x"
	.linkonce discard
	.globl	__ZSt3hexRSt8ios_base
	.def	__ZSt3hexRSt8ios_base;	.scl	2;	.type	32;	.endef
__ZSt3hexRSt8ios_base:
LFB1101:
	.cfi_startproc
	pushl	%ebp
	.cfi_def_cfa_offset 8
	.cfi_offset 5, -8
	movl	%esp, %ebp
	.cfi_def_cfa_register 5
	subl	$24, %esp
	movl	$74, 4(%esp)
	movl	$8, (%esp)
	movl	8(%ebp), %ecx
	call	__ZNSt8ios_base4setfESt13_Ios_FmtflagsS0_
	subl	$8, %esp
	movl	8(%ebp), %eax
	leave
	.cfi_restore 5
	.cfi_def_cfa 4, 4
	ret
	.cfi_endproc
LFE1101:
	.section	.text$_ZSt3octRSt8ios_base,"x"
	.linkonce discard
	.globl	__ZSt3octRSt8ios_base
	.def	__ZSt3octRSt8ios_base;	.scl	2;	.type	32;	.endef
__ZSt3octRSt8ios_base:
LFB1102:
	.cfi_startproc
	pushl	%ebp
	.cfi_def_cfa_offset 8
	.cfi_offset 5, -8
	movl	%esp, %ebp
	.cfi_def_cfa_register 5
	subl	$24, %esp
	movl	$74, 4(%esp)
	movl	$64, (%esp)
	movl	8(%ebp), %ecx
	call	__ZNSt8ios_base4setfESt13_Ios_FmtflagsS0_
	subl	$8, %esp
	movl	8(%ebp), %eax
	leave
	.cfi_restore 5
	.cfi_def_cfa 4, 4
	ret
	.cfi_endproc
LFE1102:
	.section	.text$_ZNKSt5ctypeIcE7tolowerEc,"x"
	.linkonce discard
	.align 2
	.globl	__ZNKSt5ctypeIcE7tolowerEc
	.def	__ZNKSt5ctypeIcE7tolowerEc;	.scl	2;	.type	32;	.endef
__ZNKSt5ctypeIcE7tolowerEc:
LFB1195:
	.cfi_startproc
	pushl	%ebp
	.cfi_def_cfa_offset 8
	.cfi_offset 5, -8
	movl	%esp, %ebp
	.cfi_def_cfa_register 5
	pushl	%ebx
	subl	$36, %esp
	.cfi_offset 3, -12
	movl	%ecx, -12(%ebp)
	movl	8(%ebp), %eax
	movb	%al, -16(%ebp)
	movl	-12(%ebp), %eax
	movl	(%eax), %eax
	addl	$16, %eax
	movl	(%eax), %ebx
	movsbl	-16(%ebp), %edx
	movl	-12(%ebp), %eax
	movl	%edx, (%esp)
	movl	%eax, %ecx
	call	*%ebx
	subl	$4, %esp
	movl	-4(%ebp), %ebx
	leave
	.cfi_restore 5
	.cfi_restore 3
	.cfi_def_cfa 4, 4
	ret	$4
	.cfi_endproc
LFE1195:
	.section	.text$_ZNKSt5ctypeIcE7tolowerEPcPKc,"x"
	.linkonce discard
	.align 2
	.globl	__ZNKSt5ctypeIcE7tolowerEPcPKc
	.def	__ZNKSt5ctypeIcE7tolowerEPcPKc;	.scl	2;	.type	32;	.endef
__ZNKSt5ctypeIcE7tolowerEPcPKc:
LFB1196:
	.cfi_startproc
	pushl	%ebp
	.cfi_def_cfa_offset 8
	.cfi_offset 5, -8
	movl	%esp, %ebp
	.cfi_def_cfa_register 5
	pushl	%ebx
	subl	$36, %esp
	.cfi_offset 3, -12
	movl	%ecx, -12(%ebp)
	movl	-12(%ebp), %eax
	movl	(%eax), %eax
	addl	$20, %eax
	movl	(%eax), %ebx
	movl	-12(%ebp), %eax
	movl	12(%ebp), %edx
	movl	%edx, 4(%esp)
	movl	8(%ebp), %edx
	movl	%edx, (%esp)
	movl	%eax, %ecx
	call	*%ebx
	subl	$8, %esp
	movl	-4(%ebp), %ebx
	leave
	.cfi_restore 5
	.cfi_restore 3
	.cfi_def_cfa 4, 4
	ret	$8
	.cfi_endproc
LFE1196:
	.section	.text$_ZNKSt5ctypeIcE5widenEc,"x"
	.linkonce discard
	.align 2
	.globl	__ZNKSt5ctypeIcE5widenEc
	.def	__ZNKSt5ctypeIcE5widenEc;	.scl	2;	.type	32;	.endef
__ZNKSt5ctypeIcE5widenEc:
LFB1197:
	.cfi_startproc
	pushl	%ebp
	.cfi_def_cfa_offset 8
	.cfi_offset 5, -8
	movl	%esp, %ebp
	.cfi_def_cfa_register 5
	pushl	%ebx
	subl	$36, %esp
	.cfi_offset 3, -12
	movl	%ecx, -12(%ebp)
	movl	8(%ebp), %eax
	movb	%al, -16(%ebp)
	movl	-12(%ebp), %eax
	movzbl	28(%eax), %eax
	testb	%al, %al
	je	L51
	movzbl	-16(%ebp), %eax
	movzbl	%al, %eax
	movl	-12(%ebp), %edx
	movzbl	29(%edx,%eax), %eax
	jmp	L52
L51:
	movl	-12(%ebp), %eax
	movl	%eax, %ecx
	call	__ZNKSt5ctypeIcE13_M_widen_initEv
	movl	-12(%ebp), %eax
	movl	(%eax), %eax
	addl	$24, %eax
	movl	(%eax), %ebx
	movsbl	-16(%ebp), %edx
	movl	-12(%ebp), %eax
	movl	%edx, (%esp)
	movl	%eax, %ecx
	call	*%ebx
	subl	$4, %esp
L52:
	movl	-4(%ebp), %ebx
	leave
	.cfi_restore 5
	.cfi_restore 3
	.cfi_def_cfa 4, 4
	ret	$4
	.cfi_endproc
LFE1197:
	.section	.text$_ZNKSt5ctypeIcE6narrowEcc,"x"
	.linkonce discard
	.align 2
	.globl	__ZNKSt5ctypeIcE6narrowEcc
	.def	__ZNKSt5ctypeIcE6narrowEcc;	.scl	2;	.type	32;	.endef
__ZNKSt5ctypeIcE6narrowEcc:
LFB1199:
	.cfi_startproc
	pushl	%ebp
	.cfi_def_cfa_offset 8
	.cfi_offset 5, -8
	movl	%esp, %ebp
	.cfi_def_cfa_register 5
	pushl	%ebx
	subl	$52, %esp
	.cfi_offset 3, -12
	movl	%ecx, -28(%ebp)
	movl	8(%ebp), %edx
	movl	12(%ebp), %eax
	movb	%dl, -32(%ebp)
	movb	%al, -36(%ebp)
	movzbl	-32(%ebp), %eax
	movzbl	%al, %eax
	movl	-28(%ebp), %edx
	movzbl	285(%edx,%eax), %eax
	testb	%al, %al
	je	L54
	movzbl	-32(%ebp), %eax
	movzbl	%al, %eax
	movl	-28(%ebp), %edx
	movzbl	285(%edx,%eax), %eax
	jmp	L55
L54:
	movl	-28(%ebp), %eax
	movl	(%eax), %eax
	addl	$32, %eax
	movl	(%eax), %ebx
	movsbl	-36(%ebp), %ecx
	movsbl	-32(%ebp), %edx
	movl	-28(%ebp), %eax
	movl	%ecx, 4(%esp)
	movl	%edx, (%esp)
	movl	%eax, %ecx
	call	*%ebx
	subl	$8, %esp
	movb	%al, -9(%ebp)
	movzbl	-9(%ebp), %eax
	cmpb	-36(%ebp), %al
	je	L56
	movzbl	-32(%ebp), %eax
	movzbl	%al, %eax
	movl	-28(%ebp), %edx
	movzbl	-9(%ebp), %ecx
	movb	%cl, 285(%edx,%eax)
L56:
	movzbl	-9(%ebp), %eax
L55:
	movl	-4(%ebp), %ebx
	leave
	.cfi_restore 5
	.cfi_restore 3
	.cfi_def_cfa 4, 4
	ret	$8
	.cfi_endproc
LFE1199:
	.section	.text$_ZNKSt5ctypeIcE2isEtc,"x"
	.linkonce discard
	.align 2
	.globl	__ZNKSt5ctypeIcE2isEtc
	.def	__ZNKSt5ctypeIcE2isEtc;	.scl	2;	.type	32;	.endef
__ZNKSt5ctypeIcE2isEtc:
LFB1208:
	.cfi_startproc
	pushl	%ebp
	.cfi_def_cfa_offset 8
	.cfi_offset 5, -8
	movl	%esp, %ebp
	.cfi_def_cfa_register 5
	subl	$12, %esp
	movl	%ecx, -4(%ebp)
	movl	8(%ebp), %edx
	movl	12(%ebp), %eax
	movw	%dx, -8(%ebp)
	movb	%al, -12(%ebp)
	movl	-4(%ebp), %eax
	movl	24(%eax), %eax
	movzbl	-12(%ebp), %edx
	movzbl	%dl, %edx
	addl	%edx, %edx
	addl	%edx, %eax
	movzwl	(%eax), %eax
	andw	-8(%ebp), %ax
	testw	%ax, %ax
	setne	%al
	leave
	.cfi_restore 5
	.cfi_def_cfa 4, 4
	ret	$8
	.cfi_endproc
LFE1208:
.lcomm __ZStL8__ioinit,1,1
	.section .rdata,"dr"
__ZStL13allocator_arg:
	.space 1
__ZStL6ignore:
	.space 1
	.section	.text$_ZNSt9_Any_data9_M_accessEv,"x"
	.linkonce discard
	.align 2
	.globl	__ZNSt9_Any_data9_M_accessEv
	.def	__ZNSt9_Any_data9_M_accessEv;	.scl	2;	.type	32;	.endef
__ZNSt9_Any_data9_M_accessEv:
LFB2650:
	.cfi_startproc
	pushl	%ebp
	.cfi_def_cfa_offset 8
	.cfi_offset 5, -8
	movl	%esp, %ebp
	.cfi_def_cfa_register 5
	subl	$4, %esp
	movl	%ecx, -4(%ebp)
	movl	-4(%ebp), %eax
	leave
	.cfi_restore 5
	.cfi_def_cfa 4, 4
	ret
	.cfi_endproc
LFE2650:
	.section	.text$_ZNKSt9_Any_data9_M_accessEv,"x"
	.linkonce discard
	.align 2
	.globl	__ZNKSt9_Any_data9_M_accessEv
	.def	__ZNKSt9_Any_data9_M_accessEv;	.scl	2;	.type	32;	.endef
__ZNKSt9_Any_data9_M_accessEv:
LFB2651:
	.cfi_startproc
	pushl	%ebp
	.cfi_def_cfa_offset 8
	.cfi_offset 5, -8
	movl	%esp, %ebp
	.cfi_def_cfa_register 5
	subl	$4, %esp
	movl	%ecx, -4(%ebp)
	movl	-4(%ebp), %eax
	leave
	.cfi_restore 5
	.cfi_def_cfa 4, 4
	ret
	.cfi_endproc
LFE2651:
	.section	.text$_ZNSt14_Function_baseC2Ev,"x"
	.linkonce discard
	.align 2
	.globl	__ZNSt14_Function_baseC2Ev
	.def	__ZNSt14_Function_baseC2Ev;	.scl	2;	.type	32;	.endef
__ZNSt14_Function_baseC2Ev:
LFB2676:
	.cfi_startproc
	pushl	%ebp
	.cfi_def_cfa_offset 8
	.cfi_offset 5, -8
	movl	%esp, %ebp
	.cfi_def_cfa_register 5
	subl	$4, %esp
	movl	%ecx, -4(%ebp)
	movl	-4(%ebp), %eax
	movl	$0, 8(%eax)
	nop
	leave
	.cfi_restore 5
	.cfi_def_cfa 4, 4
	ret
	.cfi_endproc
LFE2676:
	.section	.text$_ZNSt14_Function_baseD2Ev,"x"
	.linkonce discard
	.align 2
	.globl	__ZNSt14_Function_baseD2Ev
	.def	__ZNSt14_Function_baseD2Ev;	.scl	2;	.type	32;	.endef
__ZNSt14_Function_baseD2Ev:
LFB2679:
	.cfi_startproc
	.cfi_personality 0,___gxx_personality_v0
	.cfi_lsda 0,LLSDA2679
	pushl	%ebp
	.cfi_def_cfa_offset 8
	.cfi_offset 5, -8
	movl	%esp, %ebp
	.cfi_def_cfa_register 5
	subl	$40, %esp
	movl	%ecx, -12(%ebp)
	movl	-12(%ebp), %eax
	movl	8(%eax), %eax
	testl	%eax, %eax
	je	L66
	movl	-12(%ebp), %eax
	movl	8(%eax), %eax
	movl	-12(%ebp), %ecx
	movl	-12(%ebp), %edx
	movl	$3, 8(%esp)
	movl	%ecx, 4(%esp)
	movl	%edx, (%esp)
	call	*%eax
L66:
	nop
	leave
	.cfi_restore 5
	.cfi_def_cfa 4, 4
	ret
	.cfi_endproc
LFE2679:
	.def	___gxx_personality_v0;	.scl	2;	.type	32;	.endef
	.section	.gcc_except_table,"w"
LLSDA2679:
	.byte	0xff
	.byte	0xff
	.byte	0x1
	.uleb128 LLSDACSE2679-LLSDACSB2679
LLSDACSB2679:
LLSDACSE2679:
	.section	.text$_ZNSt14_Function_baseD2Ev,"x"
	.linkonce discard
	.section	.text$_ZNKSt14_Function_base8_M_emptyEv,"x"
	.linkonce discard
	.align 2
	.globl	__ZNKSt14_Function_base8_M_emptyEv
	.def	__ZNKSt14_Function_base8_M_emptyEv;	.scl	2;	.type	32;	.endef
__ZNKSt14_Function_base8_M_emptyEv:
LFB2681:
	.cfi_startproc
	pushl	%ebp
	.cfi_def_cfa_offset 8
	.cfi_offset 5, -8
	movl	%esp, %ebp
	.cfi_def_cfa_register 5
	subl	$4, %esp
	movl	%ecx, -4(%ebp)
	movl	-4(%ebp), %eax
	movl	8(%eax), %eax
	testl	%eax, %eax
	sete	%al
	leave
	.cfi_restore 5
	.cfi_def_cfa 4, 4
	ret
	.cfi_endproc
LFE2681:
	.section .rdata,"dr"
	.align 4
__ZN9__gnu_cxxL21__default_lock_policyE:
	.long	2
	.section	.text$_ZSt16__deque_buf_sizej,"x"
	.linkonce discard
	.globl	__ZSt16__deque_buf_sizej
	.def	__ZSt16__deque_buf_sizej;	.scl	2;	.type	32;	.endef
__ZSt16__deque_buf_sizej:
LFB3477:
	.cfi_startproc
	pushl	%ebp
	.cfi_def_cfa_offset 8
	.cfi_offset 5, -8
	movl	%esp, %ebp
	.cfi_def_cfa_register 5
	cmpl	$511, 8(%ebp)
	ja	L70
	movl	$512, %eax
	movl	$0, %edx
	divl	8(%ebp)
	jmp	L72
L70:
	movl	$1, %eax
L72:
	popl	%ebp
	.cfi_restore 5
	.cfi_def_cfa 4, 4
	ret
	.cfi_endproc
LFE3477:
	.section .rdata,"dr"
	.align 4
__ZNSt15regex_constantsL5icaseE:
	.long	1
	.align 4
__ZNSt15regex_constantsL6nosubsE:
	.long	2
	.align 4
__ZNSt15regex_constantsL8optimizeE:
	.long	4
	.align 4
__ZNSt15regex_constantsL7collateE:
	.long	8
	.align 4
__ZNSt15regex_constantsL10ECMAScriptE:
	.long	16
	.align 4
__ZNSt15regex_constantsL5basicE:
	.long	32
	.align 4
__ZNSt15regex_constantsL8extendedE:
	.long	64
	.align 4
__ZNSt15regex_constantsL3awkE:
	.long	128
	.align 4
__ZNSt15regex_constantsL4grepE:
	.long	256
	.align 4
__ZNSt15regex_constantsL5egrepE:
	.long	512
	.align 4
__ZNSt15regex_constantsL12__polynomialE:
	.long	1024
	.section	.text$_ZNSt15regex_constantsanENS_18syntax_option_typeES0_,"x"
	.linkonce discard
	.globl	__ZNSt15regex_constantsanENS_18syntax_option_typeES0_
	.def	__ZNSt15regex_constantsanENS_18syntax_option_typeES0_;	.scl	2;	.type	32;	.endef
__ZNSt15regex_constantsanENS_18syntax_option_typeES0_:
LFB4007:
	.cfi_startproc
	pushl	%ebp
	.cfi_def_cfa_offset 8
	.cfi_offset 5, -8
	movl	%esp, %ebp
	.cfi_def_cfa_register 5
	movl	8(%ebp), %eax
	andl	12(%ebp), %eax
	popl	%ebp
	.cfi_restore 5
	.cfi_def_cfa 4, 4
	ret
	.cfi_endproc
LFE4007:
	.section	.text$_ZNSt15regex_constantsorENS_18syntax_option_typeES0_,"x"
	.linkonce discard
	.globl	__ZNSt15regex_constantsorENS_18syntax_option_typeES0_
	.def	__ZNSt15regex_constantsorENS_18syntax_option_typeES0_;	.scl	2;	.type	32;	.endef
__ZNSt15regex_constantsorENS_18syntax_option_typeES0_:
LFB4008:
	.cfi_startproc
	pushl	%ebp
	.cfi_def_cfa_offset 8
	.cfi_offset 5, -8
	movl	%esp, %ebp
	.cfi_def_cfa_register 5
	movl	8(%ebp), %eax
	orl	12(%ebp), %eax
	popl	%ebp
	.cfi_restore 5
	.cfi_def_cfa 4, 4
	ret
	.cfi_endproc
LFE4008:
	.section .rdata,"dr"
	.align 4
__ZNSt15regex_constantsL13match_defaultE:
	.space 4
	.align 4
__ZNSt15regex_constantsL13match_not_bolE:
	.long	1
	.align 4
__ZNSt15regex_constantsL13match_not_eolE:
	.long	2
	.align 4
__ZNSt15regex_constantsL13match_not_bowE:
	.long	4
	.align 4
__ZNSt15regex_constantsL13match_not_eowE:
	.long	8
	.align 4
__ZNSt15regex_constantsL9match_anyE:
	.long	16
	.align 4
__ZNSt15regex_constantsL14match_not_nullE:
	.long	32
	.align 4
__ZNSt15regex_constantsL16match_continuousE:
	.long	64
	.align 4
__ZNSt15regex_constantsL16match_prev_availE:
	.long	128
	.align 4
__ZNSt15regex_constantsL14format_defaultE:
	.space 4
	.align 4
__ZNSt15regex_constantsL10format_sedE:
	.long	256
	.align 4
__ZNSt15regex_constantsL14format_no_copyE:
	.long	512
	.align 4
__ZNSt15regex_constantsL17format_first_onlyE:
	.long	1024
	.section	.text$_ZNSt15regex_constantsanENS_15match_flag_typeES0_,"x"
	.linkonce discard
	.globl	__ZNSt15regex_constantsanENS_15match_flag_typeES0_
	.def	__ZNSt15regex_constantsanENS_15match_flag_typeES0_;	.scl	2;	.type	32;	.endef
__ZNSt15regex_constantsanENS_15match_flag_typeES0_:
LFB4014:
	.cfi_startproc
	pushl	%ebp
	.cfi_def_cfa_offset 8
	.cfi_offset 5, -8
	movl	%esp, %ebp
	.cfi_def_cfa_register 5
	movl	8(%ebp), %eax
	andl	12(%ebp), %eax
	popl	%ebp
	.cfi_restore 5
	.cfi_def_cfa 4, 4
	ret
	.cfi_endproc
LFE4014:
	.section	.text$_ZNSt15regex_constantsorENS_15match_flag_typeES0_,"x"
	.linkonce discard
	.globl	__ZNSt15regex_constantsorENS_15match_flag_typeES0_
	.def	__ZNSt15regex_constantsorENS_15match_flag_typeES0_;	.scl	2;	.type	32;	.endef
__ZNSt15regex_constantsorENS_15match_flag_typeES0_:
LFB4015:
	.cfi_startproc
	pushl	%ebp
	.cfi_def_cfa_offset 8
	.cfi_offset 5, -8
	movl	%esp, %ebp
	.cfi_def_cfa_register 5
	movl	8(%ebp), %eax
	orl	12(%ebp), %eax
	popl	%ebp
	.cfi_restore 5
	.cfi_def_cfa 4, 4
	ret
	.cfi_endproc
LFE4015:
	.section	.text$_ZNSt15regex_constantscoENS_15match_flag_typeE,"x"
	.linkonce discard
	.globl	__ZNSt15regex_constantscoENS_15match_flag_typeE
	.def	__ZNSt15regex_constantscoENS_15match_flag_typeE;	.scl	2;	.type	32;	.endef
__ZNSt15regex_constantscoENS_15match_flag_typeE:
LFB4017:
	.cfi_startproc
	pushl	%ebp
	.cfi_def_cfa_offset 8
	.cfi_offset 5, -8
	movl	%esp, %ebp
	.cfi_def_cfa_register 5
	movl	8(%ebp), %eax
	notl	%eax
	popl	%ebp
	.cfi_restore 5
	.cfi_def_cfa 4, 4
	ret
	.cfi_endproc
LFE4017:
	.section	.text$_ZNSt15regex_constantsoRERNS_15match_flag_typeES0_,"x"
	.linkonce discard
	.globl	__ZNSt15regex_constantsoRERNS_15match_flag_typeES0_
	.def	__ZNSt15regex_constantsoRERNS_15match_flag_typeES0_;	.scl	2;	.type	32;	.endef
__ZNSt15regex_constantsoRERNS_15match_flag_typeES0_:
LFB4019:
	.cfi_startproc
	pushl	%ebp
	.cfi_def_cfa_offset 8
	.cfi_offset 5, -8
	movl	%esp, %ebp
	.cfi_def_cfa_register 5
	subl	$24, %esp
	movl	8(%ebp), %eax
	movl	(%eax), %eax
	movl	12(%ebp), %edx
	movl	%edx, 4(%esp)
	movl	%eax, (%esp)
	call	__ZNSt15regex_constantsorENS_15match_flag_typeES0_
	movl	%eax, %edx
	movl	8(%ebp), %eax
	movl	%edx, (%eax)
	movl	8(%ebp), %eax
	leave
	.cfi_restore 5
	.cfi_def_cfa 4, 4
	ret
	.cfi_endproc
LFE4019:
	.section .rdata,"dr"
	.align 4
__ZNSt15regex_constantsL13error_collateE:
	.space 4
	.align 4
__ZNSt15regex_constantsL11error_ctypeE:
	.long	1
	.align 4
__ZNSt15regex_constantsL12error_escapeE:
	.long	2
	.align 4
__ZNSt15regex_constantsL13error_backrefE:
	.long	3
	.align 4
__ZNSt15regex_constantsL11error_brackE:
	.long	4
	.align 4
__ZNSt15regex_constantsL11error_parenE:
	.long	5
	.align 4
__ZNSt15regex_constantsL11error_braceE:
	.long	6
	.align 4
__ZNSt15regex_constantsL14error_badbraceE:
	.long	7
	.align 4
__ZNSt15regex_constantsL11error_rangeE:
	.long	8
	.align 4
__ZNSt15regex_constantsL11error_spaceE:
	.long	9
	.align 4
__ZNSt15regex_constantsL15error_badrepeatE:
	.long	10
	.align 4
__ZNSt15regex_constantsL16error_complexityE:
	.long	11
	.align 4
__ZNSt15regex_constantsL11error_stackE:
	.long	12
	.section	.text$_ZNSt11regex_errorC1ENSt15regex_constants10error_typeEPKc,"x"
	.linkonce discard
	.align 2
	.globl	__ZNSt11regex_errorC1ENSt15regex_constants10error_typeEPKc
	.def	__ZNSt11regex_errorC1ENSt15regex_constants10error_typeEPKc;	.scl	2;	.type	32;	.endef
__ZNSt11regex_errorC1ENSt15regex_constants10error_typeEPKc:
LFB4024:
	.cfi_startproc
	pushl	%ebp
	.cfi_def_cfa_offset 8
	.cfi_offset 5, -8
	movl	%esp, %ebp
	.cfi_def_cfa_register 5
	subl	$40, %esp
	movl	%ecx, -12(%ebp)
	movl	-12(%ebp), %eax
	movl	12(%ebp), %edx
	movl	%edx, (%esp)
	movl	%eax, %ecx
	call	__ZNSt13runtime_errorC2EPKc
	subl	$4, %esp
	movl	$__ZTVSt11regex_error+8, %edx
	movl	-12(%ebp), %eax
	movl	%edx, (%eax)
	movl	-12(%ebp), %eax
	movl	8(%ebp), %edx
	movl	%edx, 8(%eax)
	nop
	leave
	.cfi_restore 5
	.cfi_def_cfa 4, 4
	ret	$8
	.cfi_endproc
LFE4024:
	.section	.text$_ZSt19__throw_regex_errorNSt15regex_constants10error_typeEPKc,"x"
	.linkonce discard
	.globl	__ZSt19__throw_regex_errorNSt15regex_constants10error_typeEPKc
	.def	__ZSt19__throw_regex_errorNSt15regex_constants10error_typeEPKc;	.scl	2;	.type	32;	.endef
__ZSt19__throw_regex_errorNSt15regex_constants10error_typeEPKc:
LFB4025:
	.cfi_startproc
	.cfi_personality 0,___gxx_personality_v0
	.cfi_lsda 0,LLSDA4025
	pushl	%ebp
	.cfi_def_cfa_offset 8
	.cfi_offset 5, -8
	movl	%esp, %ebp
	.cfi_def_cfa_register 5
	pushl	%esi
	pushl	%ebx
	subl	$16, %esp
	.cfi_offset 6, -12
	.cfi_offset 3, -16
	movl	$12, (%esp)
	call	___cxa_allocate_exception
	movl	%eax, %ebx
	movl	12(%ebp), %eax
	movl	%eax, 4(%esp)
	movl	8(%ebp), %eax
	movl	%eax, (%esp)
	movl	%ebx, %ecx
LEHB0:
	call	__ZNSt11regex_errorC1ENSt15regex_constants10error_typeEPKc
LEHE0:
	subl	$8, %esp
	movl	$__ZNSt11regex_errorD1Ev, 8(%esp)
	movl	$__ZTISt11regex_error, 4(%esp)
	movl	%ebx, (%esp)
LEHB1:
	call	___cxa_throw
L88:
	movl	%eax, %esi
	movl	%ebx, (%esp)
	call	___cxa_free_exception
	movl	%esi, %eax
	movl	%eax, (%esp)
	call	__Unwind_Resume
LEHE1:
	.cfi_endproc
LFE4025:
	.section	.gcc_except_table,"w"
LLSDA4025:
	.byte	0xff
	.byte	0xff
	.byte	0x1
	.uleb128 LLSDACSE4025-LLSDACSB4025
LLSDACSB4025:
	.uleb128 LEHB0-LFB4025
	.uleb128 LEHE0-LEHB0
	.uleb128 L88-LFB4025
	.uleb128 0
	.uleb128 LEHB1-LFB4025
	.uleb128 LEHE1-LEHB1
	.uleb128 0
	.uleb128 0
LLSDACSE4025:
	.section	.text$_ZSt19__throw_regex_errorNSt15regex_constants10error_typeEPKc,"x"
	.linkonce discard
	.section .rdata,"dr"
	.align 4
__ZNSt8__detailL19_S_invalid_state_idE:
	.long	-1
	.section	.text$_ZNSt8__detail11_State_baseC2ENS_7_OpcodeE,"x"
	.linkonce discard
	.align 2
	.globl	__ZNSt8__detail11_State_baseC2ENS_7_OpcodeE
	.def	__ZNSt8__detail11_State_baseC2ENS_7_OpcodeE;	.scl	2;	.type	32;	.endef
__ZNSt8__detail11_State_baseC2ENS_7_OpcodeE:
LFB4030:
	.cfi_startproc
	pushl	%ebp
	.cfi_def_cfa_offset 8
	.cfi_offset 5, -8
	movl	%esp, %ebp
	.cfi_def_cfa_register 5
	subl	$4, %esp
	movl	%ecx, -4(%ebp)
	movl	-4(%ebp), %eax
	movl	8(%ebp), %edx
	movl	%edx, (%eax)
	movl	-4(%ebp), %eax
	movl	$-1, 4(%eax)
	nop
	leave
	.cfi_restore 5
	.cfi_def_cfa 4, 4
	ret	$4
	.cfi_endproc
LFE4030:
	.section	.text$_ZNSt8__detail11_State_base10_M_has_altEv,"x"
	.linkonce discard
	.align 2
	.globl	__ZNSt8__detail11_State_base10_M_has_altEv
	.def	__ZNSt8__detail11_State_base10_M_has_altEv;	.scl	2;	.type	32;	.endef
__ZNSt8__detail11_State_base10_M_has_altEv:
LFB4032:
	.cfi_startproc
	pushl	%ebp
	.cfi_def_cfa_offset 8
	.cfi_offset 5, -8
	movl	%esp, %ebp
	.cfi_def_cfa_register 5
	subl	$4, %esp
	movl	%ecx, -4(%ebp)
	movl	-4(%ebp), %eax
	movl	(%eax), %eax
	cmpl	$1, %eax
	je	L91
	movl	-4(%ebp), %eax
	movl	(%eax), %eax
	cmpl	$2, %eax
	je	L91
	movl	-4(%ebp), %eax
	movl	(%eax), %eax
	cmpl	$7, %eax
	jne	L92
L91:
	movl	$1, %eax
	jmp	L93
L92:
	movl	$0, %eax
L93:
	leave
	.cfi_restore 5
	.cfi_def_cfa 4, 4
	ret
	.cfi_endproc
LFE4032:
	.section	.text$_ZNSt8__detail9_NFA_baseC2ENSt15regex_constants18syntax_option_typeE,"x"
	.linkonce discard
	.align 2
	.globl	__ZNSt8__detail9_NFA_baseC2ENSt15regex_constants18syntax_option_typeE
	.def	__ZNSt8__detail9_NFA_baseC2ENSt15regex_constants18syntax_option_typeE;	.scl	2;	.type	32;	.endef
__ZNSt8__detail9_NFA_baseC2ENSt15regex_constants18syntax_option_typeE:
LFB4042:
	.cfi_startproc
	pushl	%ebp
	.cfi_def_cfa_offset 8
	.cfi_offset 5, -8
	movl	%esp, %ebp
	.cfi_def_cfa_register 5
	subl	$24, %esp
	movl	%ecx, -12(%ebp)
	movl	-12(%ebp), %eax
	movl	%eax, %ecx
	call	__ZNSt6vectorIjSaIjEEC1Ev
	movl	-12(%ebp), %eax
	movl	8(%ebp), %edx
	movl	%edx, 12(%eax)
	movl	-12(%ebp), %eax
	movl	$0, 16(%eax)
	movl	-12(%ebp), %eax
	movl	$0, 20(%eax)
	movl	-12(%ebp), %eax
	movb	$0, 24(%eax)
	nop
	leave
	.cfi_restore 5
	.cfi_def_cfa 4, 4
	ret	$4
	.cfi_endproc
LFE4042:
	.section	.text$_ZNKSt8__detail9_NFA_base8_M_startEv,"x"
	.linkonce discard
	.align 2
	.globl	__ZNKSt8__detail9_NFA_base8_M_startEv
	.def	__ZNKSt8__detail9_NFA_base8_M_startEv;	.scl	2;	.type	32;	.endef
__ZNKSt8__detail9_NFA_base8_M_startEv:
LFB4045:
	.cfi_startproc
	pushl	%ebp
	.cfi_def_cfa_offset 8
	.cfi_offset 5, -8
	movl	%esp, %ebp
	.cfi_def_cfa_register 5
	subl	$4, %esp
	movl	%ecx, -4(%ebp)
	movl	-4(%ebp), %eax
	movl	16(%eax), %eax
	leave
	.cfi_restore 5
	.cfi_def_cfa 4, 4
	ret
	.cfi_endproc
LFE4045:
	.section	.text$_ZNKSt8__detail9_NFA_base12_M_sub_countEv,"x"
	.linkonce discard
	.align 2
	.globl	__ZNKSt8__detail9_NFA_base12_M_sub_countEv
	.def	__ZNKSt8__detail9_NFA_base12_M_sub_countEv;	.scl	2;	.type	32;	.endef
__ZNKSt8__detail9_NFA_base12_M_sub_countEv:
LFB4046:
	.cfi_startproc
	pushl	%ebp
	.cfi_def_cfa_offset 8
	.cfi_offset 5, -8
	movl	%esp, %ebp
	.cfi_def_cfa_register 5
	subl	$4, %esp
	movl	%ecx, -4(%ebp)
	movl	-4(%ebp), %eax
	movl	20(%eax), %eax
	leave
	.cfi_restore 5
	.cfi_def_cfa 4, 4
	ret
	.cfi_endproc
LFE4046:
	.section	.text$_ZSt7forwardIcEOT_RNSt16remove_referenceIS0_E4typeE,"x"
	.linkonce discard
	.globl	__ZSt7forwardIcEOT_RNSt16remove_referenceIS0_E4typeE
	.def	__ZSt7forwardIcEOT_RNSt16remove_referenceIS0_E4typeE;	.scl	2;	.type	32;	.endef
__ZSt7forwardIcEOT_RNSt16remove_referenceIS0_E4typeE:
LFB4076:
	.cfi_startproc
	pushl	%ebp
	.cfi_def_cfa_offset 8
	.cfi_offset 5, -8
	movl	%esp, %ebp
	.cfi_def_cfa_register 5
	movl	8(%ebp), %eax
	popl	%ebp
	.cfi_restore 5
	.cfi_def_cfa 4, 4
	ret
	.cfi_endproc
LFE4076:
	.section	.text$_ZNSt4pairIccEC1IccLb1EEEOT_OT0_,"x"
	.linkonce discard
	.align 2
	.globl	__ZNSt4pairIccEC1IccLb1EEEOT_OT0_
	.def	__ZNSt4pairIccEC1IccLb1EEEOT_OT0_;	.scl	2;	.type	32;	.endef
__ZNSt4pairIccEC1IccLb1EEEOT_OT0_:
LFB4090:
	.cfi_startproc
	pushl	%ebp
	.cfi_def_cfa_offset 8
	.cfi_offset 5, -8
	movl	%esp, %ebp
	.cfi_def_cfa_register 5
	subl	$40, %esp
	movl	%ecx, -12(%ebp)
	movl	8(%ebp), %eax
	movl	%eax, (%esp)
	call	__ZSt7forwardIcEOT_RNSt16remove_referenceIS0_E4typeE
	movzbl	(%eax), %edx
	movl	-12(%ebp), %eax
	movb	%dl, (%eax)
	movl	12(%ebp), %eax
	movl	%eax, (%esp)
	call	__ZSt7forwardIcEOT_RNSt16remove_referenceIS0_E4typeE
	movzbl	(%eax), %edx
	movl	-12(%ebp), %eax
	movb	%dl, 1(%eax)
	nop
	leave
	.cfi_restore 5
	.cfi_def_cfa 4, 4
	ret	$8
	.cfi_endproc
LFE4090:
	.section .rdata,"dr"
LC1:
	.ascii "^$\\.*+?()[]{}|\0"
LC2:
	.ascii ".[\\*^$\0"
LC3:
	.ascii ".[\\()*+?{|^$\0"
LC4:
	.ascii ".[\\()*+?{|^$\12\0"
LC5:
	.ascii ".[\\*^$\12\0"
	.data
	.align 32
LC0:
	.byte	94
	.space 3
	.long	22
	.byte	36
	.space 3
	.long	23
	.byte	46
	.space 3
	.long	0
	.byte	42
	.space 3
	.long	20
	.byte	43
	.space 3
	.long	21
	.byte	63
	.space 3
	.long	18
	.byte	124
	.space 3
	.long	19
	.byte	10
	.space 3
	.long	19
	.byte	0
	.space 3
	.long	19
	.section	.text$_ZNSt8__detail12_ScannerBaseC2ENSt15regex_constants18syntax_option_typeE,"x"
	.linkonce discard
	.align 2
	.globl	__ZNSt8__detail12_ScannerBaseC2ENSt15regex_constants18syntax_option_typeE
	.def	__ZNSt8__detail12_ScannerBaseC2ENSt15regex_constants18syntax_option_typeE;	.scl	2;	.type	32;	.endef
__ZNSt8__detail12_ScannerBaseC2ENSt15regex_constants18syntax_option_typeE:
LFB4092:
	.cfi_startproc
	pushl	%ebp
	.cfi_def_cfa_offset 8
	.cfi_offset 5, -8
	movl	%esp, %ebp
	.cfi_def_cfa_register 5
	pushl	%edi
	pushl	%esi
	pushl	%ebx
	subl	$44, %esp
	.cfi_offset 7, -12
	.cfi_offset 6, -16
	.cfi_offset 3, -20
	movl	%ecx, -28(%ebp)
	movl	-28(%ebp), %eax
	movl	%eax, %edx
	movl	$LC0, %ebx
	movl	$18, %eax
	movl	%edx, %edi
	movl	%ebx, %esi
	movl	%eax, %ecx
	rep movsl
	movl	-28(%ebp), %eax
	movb	$48, 72(%eax)
	movl	-28(%ebp), %eax
	movb	$0, 73(%eax)
	movl	-28(%ebp), %eax
	movb	$98, 74(%eax)
	movl	-28(%ebp), %eax
	movb	$8, 75(%eax)
	movl	-28(%ebp), %eax
	movb	$102, 76(%eax)
	movl	-28(%ebp), %eax
	movb	$12, 77(%eax)
	movl	-28(%ebp), %eax
	movb	$110, 78(%eax)
	movl	-28(%ebp), %eax
	movb	$10, 79(%eax)
	movl	-28(%ebp), %eax
	movb	$114, 80(%eax)
	movl	-28(%ebp), %eax
	movb	$13, 81(%eax)
	movl	-28(%ebp), %eax
	movb	$116, 82(%eax)
	movl	-28(%ebp), %eax
	movb	$9, 83(%eax)
	movl	-28(%ebp), %eax
	movb	$118, 84(%eax)
	movl	-28(%ebp), %eax
	movb	$11, 85(%eax)
	movl	-28(%ebp), %eax
	movb	$0, 86(%eax)
	movl	-28(%ebp), %eax
	movb	$0, 87(%eax)
	movl	-28(%ebp), %eax
	movb	$34, 88(%eax)
	movl	-28(%ebp), %eax
	movb	$34, 89(%eax)
	movl	-28(%ebp), %eax
	movb	$47, 90(%eax)
	movl	-28(%ebp), %eax
	movb	$47, 91(%eax)
	movl	-28(%ebp), %eax
	movb	$92, 92(%eax)
	movl	-28(%ebp), %eax
	movb	$92, 93(%eax)
	movl	-28(%ebp), %eax
	movb	$97, 94(%eax)
	movl	-28(%ebp), %eax
	movb	$7, 95(%eax)
	movl	-28(%ebp), %eax
	movb	$98, 96(%eax)
	movl	-28(%ebp), %eax
	movb	$8, 97(%eax)
	movl	-28(%ebp), %eax
	movb	$102, 98(%eax)
	movl	-28(%ebp), %eax
	movb	$12, 99(%eax)
	movl	-28(%ebp), %eax
	movb	$110, 100(%eax)
	movl	-28(%ebp), %eax
	movb	$10, 101(%eax)
	movl	-28(%ebp), %eax
	movb	$114, 102(%eax)
	movl	-28(%ebp), %eax
	movb	$13, 103(%eax)
	movl	-28(%ebp), %eax
	movb	$116, 104(%eax)
	movl	-28(%ebp), %eax
	movb	$9, 105(%eax)
	movl	-28(%ebp), %eax
	movb	$118, 106(%eax)
	movl	-28(%ebp), %eax
	movb	$11, 107(%eax)
	movl	-28(%ebp), %eax
	movb	$0, 108(%eax)
	movl	-28(%ebp), %eax
	movb	$0, 109(%eax)
	movl	-28(%ebp), %eax
	movl	$LC1, 112(%eax)
	movl	-28(%ebp), %eax
	movl	$LC2, 116(%eax)
	movl	-28(%ebp), %eax
	movl	$LC3, 120(%eax)
	movl	-28(%ebp), %eax
	movl	$0, 124(%eax)
	movl	-28(%ebp), %eax
	movl	8(%ebp), %edx
	movl	%edx, 128(%eax)
	movl	-28(%ebp), %eax
	movl	%eax, %ecx
	call	__ZNKSt8__detail12_ScannerBase10_M_is_ecmaEv
	testb	%al, %al
	je	L104
	movl	-28(%ebp), %eax
	addl	$72, %eax
	jmp	L105
L104:
	movl	-28(%ebp), %eax
	addl	$88, %eax
L105:
	movl	-28(%ebp), %edx
	movl	%eax, 136(%edx)
	movl	-28(%ebp), %eax
	movl	%eax, %ecx
	call	__ZNKSt8__detail12_ScannerBase10_M_is_ecmaEv
	testb	%al, %al
	je	L106
	movl	-28(%ebp), %eax
	movl	112(%eax), %eax
	jmp	L107
L106:
	movl	-28(%ebp), %eax
	movl	128(%eax), %eax
	movl	$32, 4(%esp)
	movl	%eax, (%esp)
	call	__ZNSt15regex_constantsanENS_18syntax_option_typeES0_
	testl	%eax, %eax
	je	L108
	movl	-28(%ebp), %eax
	movl	116(%eax), %eax
	jmp	L107
L108:
	movl	-28(%ebp), %eax
	movl	128(%eax), %eax
	movl	$64, 4(%esp)
	movl	%eax, (%esp)
	call	__ZNSt15regex_constantsanENS_18syntax_option_typeES0_
	testl	%eax, %eax
	je	L110
	movl	-28(%ebp), %eax
	movl	120(%eax), %eax
	jmp	L107
L110:
	movl	-28(%ebp), %eax
	movl	128(%eax), %eax
	movl	$256, 4(%esp)
	movl	%eax, (%esp)
	call	__ZNSt15regex_constantsanENS_18syntax_option_typeES0_
	testl	%eax, %eax
	jne	L112
	movl	-28(%ebp), %eax
	movl	128(%eax), %eax
	movl	$512, 4(%esp)
	movl	%eax, (%esp)
	call	__ZNSt15regex_constantsanENS_18syntax_option_typeES0_
	testl	%eax, %eax
	jne	L113
	movl	-28(%ebp), %eax
	movl	128(%eax), %eax
	movl	$128, 4(%esp)
	movl	%eax, (%esp)
	call	__ZNSt15regex_constantsanENS_18syntax_option_typeES0_
	testl	%eax, %eax
	je	L114
	movl	-28(%ebp), %eax
	movl	120(%eax), %eax
	jmp	L107
L114:
	movl	$0, %eax
	jmp	L107
L113:
	movl	$LC4, %eax
	jmp	L107
L112:
	movl	$LC5, %eax
L107:
	movl	-28(%ebp), %edx
	movl	%eax, 140(%edx)
	movl	-28(%ebp), %eax
	movb	$0, 144(%eax)
	nop
	addl	$44, %esp
	popl	%ebx
	.cfi_restore 3
	popl	%esi
	.cfi_restore 6
	popl	%edi
	.cfi_restore 7
	popl	%ebp
	.cfi_restore 5
	.cfi_def_cfa 4, 4
	ret	$4
	.cfi_endproc
LFE4092:
	.section	.text$_ZNSt8__detail12_ScannerBase14_M_find_escapeEc,"x"
	.linkonce discard
	.align 2
	.globl	__ZNSt8__detail12_ScannerBase14_M_find_escapeEc
	.def	__ZNSt8__detail12_ScannerBase14_M_find_escapeEc;	.scl	2;	.type	32;	.endef
__ZNSt8__detail12_ScannerBase14_M_find_escapeEc:
LFB4094:
	.cfi_startproc
	pushl	%ebp
	.cfi_def_cfa_offset 8
	.cfi_offset 5, -8
	movl	%esp, %ebp
	.cfi_def_cfa_register 5
	subl	$24, %esp
	movl	%ecx, -20(%ebp)
	movl	8(%ebp), %eax
	movb	%al, -24(%ebp)
	movl	-20(%ebp), %eax
	movl	136(%eax), %eax
	movl	%eax, -4(%ebp)
L122:
	movl	-4(%ebp), %eax
	movzbl	(%eax), %eax
	testb	%al, %al
	je	L119
	movl	-4(%ebp), %eax
	movzbl	(%eax), %eax
	cmpb	-24(%ebp), %al
	jne	L120
	movl	-4(%ebp), %eax
	addl	$1, %eax
	jmp	L121
L120:
	addl	$2, -4(%ebp)
	jmp	L122
L119:
	movl	$0, %eax
L121:
	leave
	.cfi_restore 5
	.cfi_def_cfa 4, 4
	ret	$4
	.cfi_endproc
LFE4094:
	.section	.text$_ZNKSt8__detail12_ScannerBase10_M_is_ecmaEv,"x"
	.linkonce discard
	.align 2
	.globl	__ZNKSt8__detail12_ScannerBase10_M_is_ecmaEv
	.def	__ZNKSt8__detail12_ScannerBase10_M_is_ecmaEv;	.scl	2;	.type	32;	.endef
__ZNKSt8__detail12_ScannerBase10_M_is_ecmaEv:
LFB4095:
	.cfi_startproc
	pushl	%ebp
	.cfi_def_cfa_offset 8
	.cfi_offset 5, -8
	movl	%esp, %ebp
	.cfi_def_cfa_register 5
	subl	$40, %esp
	movl	%ecx, -12(%ebp)
	movl	-12(%ebp), %eax
	movl	128(%eax), %eax
	movl	$16, 4(%esp)
	movl	%eax, (%esp)
	call	__ZNSt15regex_constantsanENS_18syntax_option_typeES0_
	testl	%eax, %eax
	setne	%al
	leave
	.cfi_restore 5
	.cfi_def_cfa 4, 4
	ret
	.cfi_endproc
LFE4095:
	.section	.text$_ZNKSt8__detail12_ScannerBase11_M_is_basicEv,"x"
	.linkonce discard
	.align 2
	.globl	__ZNKSt8__detail12_ScannerBase11_M_is_basicEv
	.def	__ZNKSt8__detail12_ScannerBase11_M_is_basicEv;	.scl	2;	.type	32;	.endef
__ZNKSt8__detail12_ScannerBase11_M_is_basicEv:
LFB4096:
	.cfi_startproc
	pushl	%ebp
	.cfi_def_cfa_offset 8
	.cfi_offset 5, -8
	movl	%esp, %ebp
	.cfi_def_cfa_register 5
	subl	$40, %esp
	movl	%ecx, -12(%ebp)
	movl	$256, 4(%esp)
	movl	$32, (%esp)
	call	__ZNSt15regex_constantsorENS_18syntax_option_typeES0_
	movl	%eax, %edx
	movl	-12(%ebp), %eax
	movl	128(%eax), %eax
	movl	%edx, 4(%esp)
	movl	%eax, (%esp)
	call	__ZNSt15regex_constantsanENS_18syntax_option_typeES0_
	testl	%eax, %eax
	setne	%al
	leave
	.cfi_restore 5
	.cfi_def_cfa 4, 4
	ret
	.cfi_endproc
LFE4096:
	.section	.text$_ZNKSt8__detail12_ScannerBase9_M_is_awkEv,"x"
	.linkonce discard
	.align 2
	.globl	__ZNKSt8__detail12_ScannerBase9_M_is_awkEv
	.def	__ZNKSt8__detail12_ScannerBase9_M_is_awkEv;	.scl	2;	.type	32;	.endef
__ZNKSt8__detail12_ScannerBase9_M_is_awkEv:
LFB4099:
	.cfi_startproc
	pushl	%ebp
	.cfi_def_cfa_offset 8
	.cfi_offset 5, -8
	movl	%esp, %ebp
	.cfi_def_cfa_register 5
	subl	$40, %esp
	movl	%ecx, -12(%ebp)
	movl	-12(%ebp), %eax
	movl	128(%eax), %eax
	movl	$128, 4(%esp)
	movl	%eax, (%esp)
	call	__ZNSt15regex_constantsanENS_18syntax_option_typeES0_
	testl	%eax, %eax
	setne	%al
	leave
	.cfi_restore 5
	.cfi_def_cfa 4, 4
	ret
	.cfi_endproc
LFE4099:
	.section .rdata,"dr"
LC6:
	.ascii " \0"
LC7:
	.ascii "  \0"
	.text
	.align 2
	.def	__ZZ5alignRKSt6vectorINSt7__cxx1112basic_stringIcSt11char_traitsIcESaIcEEESaIS5_EERS7_RKiENKUlRKS5_E_clESE_;	.scl	3;	.type	32;	.endef
__ZZ5alignRKSt6vectorINSt7__cxx1112basic_stringIcSt11char_traitsIcESaIcEEESaIS5_EERS7_RKiENKUlRKS5_E_clESE_:
LFB4440:
	.cfi_startproc
	.cfi_personality 0,___gxx_personality_v0
	.cfi_lsda 0,LLSDA4440
	pushl	%ebp
	.cfi_def_cfa_offset 8
	.cfi_offset 5, -8
	movl	%esp, %ebp
	.cfi_def_cfa_register 5
	pushl	%ebx
	subl	$164, %esp
	.cfi_offset 3, -12
	movl	%ecx, -124(%ebp)
	movb	$32, -58(%ebp)
	movl	12(%ebp), %eax
	movl	%eax, %ecx
	call	__ZNKSt7__cxx1112basic_stringIcSt11char_traitsIcESaIcEE3endEv
	movl	%eax, %ebx
	movl	12(%ebp), %eax
	movl	%eax, %ecx
	call	__ZNKSt7__cxx1112basic_stringIcSt11char_traitsIcESaIcEE5beginEv
	movl	%eax, %edx
	leal	-58(%ebp), %eax
	movl	%eax, 8(%esp)
	movl	%ebx, 4(%esp)
	movl	%edx, (%esp)
LEHB2:
	call	__ZSt5countIN9__gnu_cxx17__normal_iteratorIPKcNSt7__cxx1112basic_stringIcSt11char_traitsIcESaIcEEEEEcENSt15iterator_traitsIT_E15difference_typeESC_SC_RKT0_
	movl	%eax, -12(%ebp)
	movl	12(%ebp), %eax
	movl	%eax, %ecx
	call	__ZNKSt7__cxx1112basic_stringIcSt11char_traitsIcESaIcEE4sizeEv
	movl	%eax, %edx
	movl	8(%ebp), %eax
	movl	(%eax), %eax
	movl	(%eax), %eax
	cmpl	%eax, %edx
	je	L130
	cmpl	$0, -12(%ebp)
	jne	L131
L130:
	movl	$1, %eax
	jmp	L132
L131:
	movl	$0, %eax
L132:
	testb	%al, %al
	je	L133
	movl	-124(%ebp), %eax
	movl	12(%ebp), %edx
	movl	%edx, (%esp)
	movl	%eax, %ecx
	call	__ZNSt7__cxx1112basic_stringIcSt11char_traitsIcESaIcEEC1ERKS4_
LEHE2:
	subl	$4, %esp
	jmp	L129
L133:
	movl	8(%ebp), %eax
	movl	(%eax), %eax
	movl	(%eax), %eax
	movl	%eax, %ebx
	movl	12(%ebp), %eax
	movl	%eax, %ecx
	call	__ZNKSt7__cxx1112basic_stringIcSt11char_traitsIcESaIcEE4sizeEv
	subl	%eax, %ebx
	movl	%ebx, %eax
	movl	%eax, -16(%ebp)
	leal	-57(%ebp), %eax
	movl	%eax, %ecx
	call	__ZNSaIcEC1Ev
	movl	-16(%ebp), %eax
	cltd
	idivl	-12(%ebp)
	addl	$1, %eax
	movl	%eax, %ecx
	leal	-84(%ebp), %eax
	leal	-57(%ebp), %edx
	movl	%edx, 8(%esp)
	movl	$32, 4(%esp)
	movl	%ecx, (%esp)
	movl	%eax, %ecx
LEHB3:
	call	__ZNSt7__cxx1112basic_stringIcSt11char_traitsIcESaIcEEC1EjcRKS3_
LEHE3:
	subl	$12, %esp
	leal	-57(%ebp), %eax
	movl	%eax, %ecx
	call	__ZNSaIcED1Ev
	movl	-16(%ebp), %eax
	cltd
	idivl	-12(%ebp)
	movl	%edx, %eax
	testl	%eax, %eax
	jne	L135
	leal	-56(%ebp), %eax
	movl	$16, 4(%esp)
	movl	$LC6, (%esp)
	movl	%eax, %ecx
LEHB4:
	call	__ZNSt7__cxx1111basic_regexIcNS_12regex_traitsIcEEEC1EPKcNSt15regex_constants18syntax_option_typeE
LEHE4:
	subl	$8, %esp
	movl	-124(%ebp), %eax
	movl	$0, 16(%esp)
	leal	-84(%ebp), %edx
	movl	%edx, 12(%esp)
	leal	-56(%ebp), %edx
	movl	%edx, 8(%esp)
	movl	12(%ebp), %edx
	movl	%edx, 4(%esp)
	movl	%eax, (%esp)
LEHB5:
	call	__ZSt13regex_replaceINSt7__cxx1112regex_traitsIcEEcSt11char_traitsIcESaIcES4_S5_ENS0_12basic_stringIT0_T1_T2_EERKSA_RKNS0_11basic_regexIS7_T_EERKNS6_IS7_T3_T4_EENSt15regex_constants15match_flag_typeE
LEHE5:
	nop
	leal	-56(%ebp), %eax
	movl	%eax, %ecx
	call	__ZNSt7__cxx1111basic_regexIcNS_12regex_traitsIcEEED1Ev
	jmp	L136
L135:
	leal	-40(%ebp), %eax
	movl	$16, 4(%esp)
	movl	$LC6, (%esp)
	movl	%eax, %ecx
LEHB6:
	call	__ZNSt7__cxx1111basic_regexIcNS_12regex_traitsIcEEEC1EPKcNSt15regex_constants18syntax_option_typeE
LEHE6:
	subl	$8, %esp
	leal	-108(%ebp), %eax
	movl	$0, 16(%esp)
	leal	-84(%ebp), %edx
	movl	%edx, 12(%esp)
	leal	-40(%ebp), %edx
	movl	%edx, 8(%esp)
	movl	12(%ebp), %edx
	movl	%edx, 4(%esp)
	movl	%eax, (%esp)
LEHB7:
	call	__ZSt13regex_replaceINSt7__cxx1112regex_traitsIcEEcSt11char_traitsIcESaIcES4_S5_ENS0_12basic_stringIT0_T1_T2_EERKSA_RKNS0_11basic_regexIS7_T_EERKNS6_IS7_T3_T4_EENSt15regex_constants15match_flag_typeE
LEHE7:
	leal	-40(%ebp), %eax
	movl	%eax, %ecx
	call	__ZNSt7__cxx1111basic_regexIcNS_12regex_traitsIcEEED1Ev
	movb	$32, -21(%ebp)
	leal	-108(%ebp), %eax
	movl	%eax, %ecx
	call	__ZNSt7__cxx1112basic_stringIcSt11char_traitsIcESaIcEE3endEv
	movl	%eax, %ebx
	leal	-108(%ebp), %eax
	movl	%eax, %ecx
	call	__ZNSt7__cxx1112basic_stringIcSt11char_traitsIcESaIcEE5beginEv
	movl	%eax, %edx
	leal	-21(%ebp), %eax
	movl	%eax, 8(%esp)
	movl	%ebx, 4(%esp)
	movl	%edx, (%esp)
LEHB8:
	call	__ZSt4findIN9__gnu_cxx17__normal_iteratorIPcNSt7__cxx1112basic_stringIcSt11char_traitsIcESaIcEEEEEcET_SA_SA_RKT0_
	movl	%eax, -112(%ebp)
	leal	-108(%ebp), %eax
	movl	%eax, %ecx
	call	__ZNSt7__cxx1112basic_stringIcSt11char_traitsIcESaIcEE3endEv
	movl	%eax, -20(%ebp)
	leal	-20(%ebp), %eax
	movl	%eax, 4(%esp)
	leal	-112(%ebp), %eax
	movl	%eax, (%esp)
	call	__ZN9__gnu_cxxneIPcNSt7__cxx1112basic_stringIcSt11char_traitsIcESaIcEEEEEbRKNS_17__normal_iteratorIT_T0_EESD_
	testb	%al, %al
	je	L137
	leal	-112(%ebp), %eax
	movl	%eax, %ecx
	call	__ZNK9__gnu_cxx17__normal_iteratorIPcNSt7__cxx1112basic_stringIcSt11char_traitsIcESaIcEEEEdeEv
	movzbl	(%eax), %eax
	movsbl	%al, %edx
	leal	-108(%ebp), %eax
	movl	$LC7, 4(%esp)
	movl	%edx, (%esp)
	movl	%eax, %ecx
	call	__ZNSt7__cxx1112basic_stringIcSt11char_traitsIcESaIcEE6insertEjPKc
LEHE8:
	subl	$8, %esp
L137:
	movl	-124(%ebp), %eax
	leal	-108(%ebp), %edx
	movl	%edx, (%esp)
	movl	%eax, %ecx
	call	__ZNSt7__cxx1112basic_stringIcSt11char_traitsIcESaIcEEC1EOS4_
	subl	$4, %esp
	leal	-108(%ebp), %eax
	movl	%eax, %ecx
	call	__ZNSt7__cxx1112basic_stringIcSt11char_traitsIcESaIcEED1Ev
L136:
	leal	-84(%ebp), %eax
	movl	%eax, %ecx
	call	__ZNSt7__cxx1112basic_stringIcSt11char_traitsIcESaIcEED1Ev
	jmp	L129
L144:
	movl	%eax, %ebx
	leal	-57(%ebp), %eax
	movl	%eax, %ecx
	call	__ZNSaIcED1Ev
	movl	%ebx, %eax
	movl	%eax, (%esp)
LEHB9:
	call	__Unwind_Resume
L146:
	movl	%eax, %ebx
	leal	-56(%ebp), %eax
	movl	%eax, %ecx
	call	__ZNSt7__cxx1111basic_regexIcNS_12regex_traitsIcEEED1Ev
	jmp	L141
L147:
	movl	%eax, %ebx
	leal	-40(%ebp), %eax
	movl	%eax, %ecx
	call	__ZNSt7__cxx1111basic_regexIcNS_12regex_traitsIcEEED1Ev
	jmp	L141
L148:
	movl	%eax, %ebx
	leal	-108(%ebp), %eax
	movl	%eax, %ecx
	call	__ZNSt7__cxx1112basic_stringIcSt11char_traitsIcESaIcEED1Ev
	jmp	L141
L145:
	movl	%eax, %ebx
L141:
	leal	-84(%ebp), %eax
	movl	%eax, %ecx
	call	__ZNSt7__cxx1112basic_stringIcSt11char_traitsIcESaIcEED1Ev
	movl	%ebx, %eax
	movl	%eax, (%esp)
	call	__Unwind_Resume
LEHE9:
L129:
	movl	-124(%ebp), %eax
	movl	-4(%ebp), %ebx
	leave
	.cfi_restore 5
	.cfi_restore 3
	.cfi_def_cfa 4, 4
	ret	$8
	.cfi_endproc
LFE4440:
	.section	.gcc_except_table,"w"
LLSDA4440:
	.byte	0xff
	.byte	0xff
	.byte	0x1
	.uleb128 LLSDACSE4440-LLSDACSB4440
LLSDACSB4440:
	.uleb128 LEHB2-LFB4440
	.uleb128 LEHE2-LEHB2
	.uleb128 0
	.uleb128 0
	.uleb128 LEHB3-LFB4440
	.uleb128 LEHE3-LEHB3
	.uleb128 L144-LFB4440
	.uleb128 0
	.uleb128 LEHB4-LFB4440
	.uleb128 LEHE4-LEHB4
	.uleb128 L145-LFB4440
	.uleb128 0
	.uleb128 LEHB5-LFB4440
	.uleb128 LEHE5-LEHB5
	.uleb128 L146-LFB4440
	.uleb128 0
	.uleb128 LEHB6-LFB4440
	.uleb128 LEHE6-LEHB6
	.uleb128 L145-LFB4440
	.uleb128 0
	.uleb128 LEHB7-LFB4440
	.uleb128 LEHE7-LEHB7
	.uleb128 L147-LFB4440
	.uleb128 0
	.uleb128 LEHB8-LFB4440
	.uleb128 LEHE8-LEHB8
	.uleb128 L148-LFB4440
	.uleb128 0
	.uleb128 LEHB9-LFB4440
	.uleb128 LEHE9-LEHB9
	.uleb128 0
	.uleb128 0
LLSDACSE4440:
	.text
	.globl	__Z5alignRKSt6vectorINSt7__cxx1112basic_stringIcSt11char_traitsIcESaIcEEESaIS5_EERS7_RKi
	.def	__Z5alignRKSt6vectorINSt7__cxx1112basic_stringIcSt11char_traitsIcESaIcEEESaIS5_EERS7_RKi;	.scl	2;	.type	32;	.endef
__Z5alignRKSt6vectorINSt7__cxx1112basic_stringIcSt11char_traitsIcESaIcEEESaIS5_EERS7_RKi:
LFB4439:
	.cfi_startproc
	pushl	%ebp
	.cfi_def_cfa_offset 8
	.cfi_offset 5, -8
	movl	%esp, %ebp
	.cfi_def_cfa_register 5
	pushl	%edi
	pushl	%esi
	pushl	%ebx
	subl	$28, %esp
	.cfi_offset 7, -12
	.cfi_offset 6, -16
	.cfi_offset 3, -20
	movl	16(%ebp), %ebx
	movl	12(%ebp), %eax
	movl	%eax, %ecx
	call	__ZNSt6vectorINSt7__cxx1112basic_stringIcSt11char_traitsIcESaIcEEESaIS5_EE5beginEv
	movl	%eax, %edi
	movl	8(%ebp), %ecx
	call	__ZNKSt6vectorINSt7__cxx1112basic_stringIcSt11char_traitsIcESaIcEEESaIS5_EE3endEv
	movl	%eax, %esi
	movl	8(%ebp), %ecx
	call	__ZNKSt6vectorINSt7__cxx1112basic_stringIcSt11char_traitsIcESaIcEEESaIS5_EE5beginEv
	movl	%ebx, 12(%esp)
	movl	%edi, 8(%esp)
	movl	%esi, 4(%esp)
	movl	%eax, (%esp)
	call	__ZSt9transformIN9__gnu_cxx17__normal_iteratorIPKNSt7__cxx1112basic_stringIcSt11char_traitsIcESaIcEEESt6vectorIS7_SaIS7_EEEENS1_IPS7_SC_EEZ5alignRKSC_RSC_RKiEUlRS8_E_ET0_T_SO_SN_T1_
	nop
	addl	$28, %esp
	popl	%ebx
	.cfi_restore 3
	popl	%esi
	.cfi_restore 6
	popl	%edi
	.cfi_restore 7
	popl	%ebp
	.cfi_restore 5
	.cfi_def_cfa 4, 4
	ret
	.cfi_endproc
LFE4439:
	.align 2
	.def	__ZZ4mainENKUlRKNSt7__cxx1112basic_stringIcSt11char_traitsIcESaIcEEES6_E_clES6_S6_;	.scl	3;	.type	32;	.endef
__ZZ4mainENKUlRKNSt7__cxx1112basic_stringIcSt11char_traitsIcESaIcEEES6_E_clES6_S6_:
LFB4442:
	.cfi_startproc
	pushl	%ebp
	.cfi_def_cfa_offset 8
	.cfi_offset 5, -8
	movl	%esp, %ebp
	.cfi_def_cfa_register 5
	pushl	%ebx
	subl	$20, %esp
	.cfi_offset 3, -12
	movl	%ecx, -12(%ebp)
	movl	8(%ebp), %ecx
	call	__ZNKSt7__cxx1112basic_stringIcSt11char_traitsIcESaIcEE4sizeEv
	movl	%eax, %ebx
	movl	12(%ebp), %eax
	movl	%eax, %ecx
	call	__ZNKSt7__cxx1112basic_stringIcSt11char_traitsIcESaIcEE4sizeEv
	cmpl	%eax, %ebx
	setb	%al
	addl	$20, %esp
	popl	%ebx
	.cfi_restore 3
	popl	%ebp
	.cfi_restore 5
	.cfi_def_cfa 4, 4
	ret	$8
	.cfi_endproc
LFE4442:
	.align 2
	.def	__ZN9__gnu_cxx5__ops15_Iter_comp_iterIZ4mainEUlRKNSt7__cxx1112basic_stringIcSt11char_traitsIcESaIcEEES9_E_EC2ESA_;	.scl	3;	.type	32;	.endef
__ZN9__gnu_cxx5__ops15_Iter_comp_iterIZ4mainEUlRKNSt7__cxx1112basic_stringIcSt11char_traitsIcESaIcEEES9_E_EC2ESA_:
LFB4448:
	.cfi_startproc
	pushl	%ebp
	.cfi_def_cfa_offset 8
	.cfi_offset 5, -8
	movl	%esp, %ebp
	.cfi_def_cfa_register 5
	subl	$4, %esp
	movl	%ecx, -4(%ebp)
	nop
	leave
	.cfi_restore 5
	.cfi_def_cfa 4, 4
	ret	$4
	.cfi_endproc
LFE4448:
	.def	__ZN9__gnu_cxx5__ops15_Iter_comp_iterIZ4mainEUlRKNSt7__cxx1112basic_stringIcSt11char_traitsIcESaIcEEES9_E_EC1ESA_;	.scl	3;	.type	32;	.endef
	.set	__ZN9__gnu_cxx5__ops15_Iter_comp_iterIZ4mainEUlRKNSt7__cxx1112basic_stringIcSt11char_traitsIcESaIcEEES9_E_EC1ESA_,__ZN9__gnu_cxx5__ops15_Iter_comp_iterIZ4mainEUlRKNSt7__cxx1112basic_stringIcSt11char_traitsIcESaIcEEES9_E_EC2ESA_
	.def	__ZN9__gnu_cxx5__ops16__iter_comp_iterIZ4mainEUlRKNSt7__cxx1112basic_stringIcSt11char_traitsIcESaIcEEES9_E_EENS0_15_Iter_comp_iterIT_EESC_;	.scl	3;	.type	32;	.endef
__ZN9__gnu_cxx5__ops16__iter_comp_iterIZ4mainEUlRKNSt7__cxx1112basic_stringIcSt11char_traitsIcESaIcEEES9_E_EENS0_15_Iter_comp_iterIT_EESC_:
LFB4446:
	.cfi_startproc
	pushl	%ebp
	.cfi_def_cfa_offset 8
	.cfi_offset 5, -8
	movl	%esp, %ebp
	.cfi_def_cfa_register 5
	pushl	%ebx
	subl	$20, %esp
	.cfi_offset 3, -12
	leal	-5(%ebp), %eax
	movb	%dl, (%esp)
	movl	%eax, %ecx
	call	__ZN9__gnu_cxx5__ops15_Iter_comp_iterIZ4mainEUlRKNSt7__cxx1112basic_stringIcSt11char_traitsIcESaIcEEES9_E_EC1ESA_
	subl	$4, %esp
	movl	%ebx, %eax
	movl	-4(%ebp), %ebx
	leave
	.cfi_restore 5
	.cfi_restore 3
	.cfi_def_cfa 4, 4
	ret
	.cfi_endproc
LFE4446:
	.align 2
	.def	__ZN9__gnu_cxx5__ops15_Iter_comp_iterIZ4mainEUlRKNSt7__cxx1112basic_stringIcSt11char_traitsIcESaIcEEES9_E_EclINS_17__normal_iteratorIPS7_St6vectorIS7_SaIS7_EEEESI_EEbT_T0_;	.scl	3;	.type	32;	.endef
__ZN9__gnu_cxx5__ops15_Iter_comp_iterIZ4mainEUlRKNSt7__cxx1112basic_stringIcSt11char_traitsIcESaIcEEES9_E_EclINS_17__normal_iteratorIPS7_St6vectorIS7_SaIS7_EEEESI_EEbT_T0_:
LFB4451:
	.cfi_startproc
	pushl	%ebp
	.cfi_def_cfa_offset 8
	.cfi_offset 5, -8
	movl	%esp, %ebp
	.cfi_def_cfa_register 5
	pushl	%ebx
	subl	$36, %esp
	.cfi_offset 3, -12
	movl	%ecx, -12(%ebp)
	leal	12(%ebp), %eax
	movl	%eax, %ecx
	call	__ZNK9__gnu_cxx17__normal_iteratorIPNSt7__cxx1112basic_stringIcSt11char_traitsIcESaIcEEESt6vectorIS6_SaIS6_EEEdeEv
	movl	%eax, %ebx
	leal	8(%ebp), %ecx
	call	__ZNK9__gnu_cxx17__normal_iteratorIPNSt7__cxx1112basic_stringIcSt11char_traitsIcESaIcEEESt6vectorIS6_SaIS6_EEEdeEv
	movl	%eax, %edx
	movl	-12(%ebp), %eax
	movl	%ebx, 4(%esp)
	movl	%edx, (%esp)
	movl	%eax, %ecx
	call	__ZZ4mainENKUlRKNSt7__cxx1112basic_stringIcSt11char_traitsIcESaIcEEES6_E_clES6_S6_
	subl	$8, %esp
	movl	-4(%ebp), %ebx
	leave
	.cfi_restore 5
	.cfi_restore 3
	.cfi_def_cfa 4, 4
	ret	$8
	.cfi_endproc
LFE4451:
	.def	__ZSt13__max_elementIN9__gnu_cxx17__normal_iteratorIPNSt7__cxx1112basic_stringIcSt11char_traitsIcESaIcEEESt6vectorIS7_SaIS7_EEEENS0_5__ops15_Iter_comp_iterIZ4mainEUlRKS7_SG_E_EEET_SJ_SJ_T0_;	.scl	3;	.type	32;	.endef
__ZSt13__max_elementIN9__gnu_cxx17__normal_iteratorIPNSt7__cxx1112basic_stringIcSt11char_traitsIcESaIcEEESt6vectorIS7_SaIS7_EEEENS0_5__ops15_Iter_comp_iterIZ4mainEUlRKS7_SG_E_EEET_SJ_SJ_T0_:
LFB4450:
	.cfi_startproc
	pushl	%ebp
	.cfi_def_cfa_offset 8
	.cfi_offset 5, -8
	movl	%esp, %ebp
	.cfi_def_cfa_register 5
	subl	$40, %esp
	leal	12(%ebp), %eax
	movl	%eax, 4(%esp)
	leal	8(%ebp), %eax
	movl	%eax, (%esp)
	call	__ZN9__gnu_cxxeqIPNSt7__cxx1112basic_stringIcSt11char_traitsIcESaIcEEESt6vectorIS6_SaIS6_EEEEbRKNS_17__normal_iteratorIT_T0_EESG_
	testb	%al, %al
	je	L158
	movl	8(%ebp), %eax
	jmp	L163
L158:
	movl	8(%ebp), %eax
	movl	%eax, -12(%ebp)
L162:
	leal	8(%ebp), %ecx
	call	__ZN9__gnu_cxx17__normal_iteratorIPNSt7__cxx1112basic_stringIcSt11char_traitsIcESaIcEEESt6vectorIS6_SaIS6_EEEppEv
	movl	%eax, %edx
	leal	12(%ebp), %eax
	movl	%eax, 4(%esp)
	movl	%edx, (%esp)
	call	__ZN9__gnu_cxxneIPNSt7__cxx1112basic_stringIcSt11char_traitsIcESaIcEEESt6vectorIS6_SaIS6_EEEEbRKNS_17__normal_iteratorIT_T0_EESG_
	testb	%al, %al
	je	L160
	leal	16(%ebp), %eax
	movl	8(%ebp), %edx
	movl	%edx, 4(%esp)
	movl	-12(%ebp), %edx
	movl	%edx, (%esp)
	movl	%eax, %ecx
	call	__ZN9__gnu_cxx5__ops15_Iter_comp_iterIZ4mainEUlRKNSt7__cxx1112basic_stringIcSt11char_traitsIcESaIcEEES9_E_EclINS_17__normal_iteratorIPS7_St6vectorIS7_SaIS7_EEEESI_EEbT_T0_
	subl	$8, %esp
	testb	%al, %al
	je	L162
	movl	8(%ebp), %eax
	movl	%eax, -12(%ebp)
	jmp	L162
L160:
	movl	-12(%ebp), %eax
L163:
	leave
	.cfi_restore 5
	.cfi_def_cfa 4, 4
	ret
	.cfi_endproc
LFE4450:
	.def	__ZSt11max_elementIN9__gnu_cxx17__normal_iteratorIPNSt7__cxx1112basic_stringIcSt11char_traitsIcESaIcEEESt6vectorIS7_SaIS7_EEEEZ4mainEUlRKS7_SE_E_ET_SG_SG_T0_;	.scl	3;	.type	32;	.endef
__ZSt11max_elementIN9__gnu_cxx17__normal_iteratorIPNSt7__cxx1112basic_stringIcSt11char_traitsIcESaIcEEESt6vectorIS7_SaIS7_EEEEZ4mainEUlRKS7_SE_E_ET_SG_SG_T0_:
LFB4445:
	.cfi_startproc
	pushl	%ebp
	.cfi_def_cfa_offset 8
	.cfi_offset 5, -8
	movl	%esp, %ebp
	.cfi_def_cfa_register 5
	pushl	%ebx
	subl	$20, %esp
	.cfi_offset 3, -12
	movb	%al, (%esp)
	call	__ZN9__gnu_cxx5__ops16__iter_comp_iterIZ4mainEUlRKNSt7__cxx1112basic_stringIcSt11char_traitsIcESaIcEEES9_E_EENS0_15_Iter_comp_iterIT_EESC_
	movb	%bl, 8(%esp)
	movl	12(%ebp), %eax
	movl	%eax, 4(%esp)
	movl	8(%ebp), %eax
	movl	%eax, (%esp)
	call	__ZSt13__max_elementIN9__gnu_cxx17__normal_iteratorIPNSt7__cxx1112basic_stringIcSt11char_traitsIcESaIcEEESt6vectorIS7_SaIS7_EEEENS0_5__ops15_Iter_comp_iterIZ4mainEUlRKS7_SG_E_EEET_SJ_SJ_T0_
	addl	$20, %esp
	popl	%ebx
	.cfi_restore 3
	popl	%ebp
	.cfi_restore 5
	.cfi_def_cfa 4, 4
	ret
	.cfi_endproc
LFE4445:
	.def	___main;	.scl	2;	.type	32;	.endef
	.section .rdata,"dr"
LC8:
	.ascii "text1.txt\0"
LC9:
	.ascii "\12\0"
	.text
	.globl	_main
	.def	_main;	.scl	2;	.type	32;	.endef
_main:
LFB4441:
	.cfi_startproc
	.cfi_personality 0,___gxx_personality_v0
	.cfi_lsda 0,LLSDA4441
	leal	4(%esp), %ecx
	.cfi_def_cfa 1, 0
	andl	$-16, %esp
	pushl	-4(%ecx)
	pushl	%ebp
	.cfi_escape 0x10,0x5,0x2,0x75,0
	movl	%esp, %ebp
	pushl	%ebx
	pushl	%ecx
	.cfi_escape 0xf,0x3,0x75,0x78,0x6
	.cfi_escape 0x10,0x3,0x2,0x75,0x7c
	subl	$384, %esp
	call	___main
	leal	-32(%ebp), %eax
	movl	%eax, %ecx
	call	__ZNSt6vectorINSt7__cxx1112basic_stringIcSt11char_traitsIcESaIcEEESaIS5_EEC1Ev
	leal	-284(%ebp), %eax
	movl	$8, 4(%esp)
	movl	$LC8, (%esp)
	movl	%eax, %ecx
LEHB10:
	call	__ZNSt14basic_ifstreamIcSt11char_traitsIcEEC1EPKcSt13_Ios_Openmode
LEHE10:
	subl	$8, %esp
	leal	-284(%ebp), %eax
	addl	$116, %eax
	movl	%eax, %ecx
LEHB11:
	call	__ZNKSt9basic_iosIcSt11char_traitsIcEE4failEv
LEHE11:
	testb	%al, %al
	je	L167
	movl	$-1, %ebx
	jmp	L168
L167:
	leal	-308(%ebp), %eax
	movl	%eax, %ecx
	call	__ZNSt7__cxx1112basic_stringIcSt11char_traitsIcESaIcEEC1Ev
L170:
	leal	-308(%ebp), %eax
	movl	%eax, 4(%esp)
	leal	-284(%ebp), %eax
	movl	%eax, (%esp)
LEHB12:
	call	__ZSt7getlineIcSt11char_traitsIcESaIcEERSt13basic_istreamIT_T0_ES7_RNSt7__cxx1112basic_stringIS4_S5_T1_EE
	movl	(%eax), %edx
	subl	$12, %edx
	movl	(%edx), %edx
	addl	%edx, %eax
	movl	%eax, %ecx
	call	__ZNKSt9basic_iosIcSt11char_traitsIcEEcvbEv
	testb	%al, %al
	je	L169
	leal	-32(%ebp), %eax
	leal	-308(%ebp), %edx
	movl	%edx, (%esp)
	movl	%eax, %ecx
	call	__ZNSt6vectorINSt7__cxx1112basic_stringIcSt11char_traitsIcESaIcEEESaIS5_EE9push_backERKS5_
LEHE12:
	subl	$4, %esp
	jmp	L170
L169:
	leal	-32(%ebp), %eax
	movl	%eax, %ecx
	call	__ZNSt6vectorINSt7__cxx1112basic_stringIcSt11char_traitsIcESaIcEEESaIS5_EE3endEv
	movl	%eax, %ebx
	leal	-32(%ebp), %eax
	movl	%eax, %ecx
	call	__ZNSt6vectorINSt7__cxx1112basic_stringIcSt11char_traitsIcESaIcEEESaIS5_EE5beginEv
	movzbl	-361(%ebp), %edx
	movb	%dl, 8(%esp)
	movl	%ebx, 4(%esp)
	movl	%eax, (%esp)
	call	__ZSt11max_elementIN9__gnu_cxx17__normal_iteratorIPNSt7__cxx1112basic_stringIcSt11char_traitsIcESaIcEEESt6vectorIS7_SaIS7_EEEEZ4mainEUlRKS7_SE_E_ET_SG_SG_T0_
	movl	%eax, -20(%ebp)
	leal	-20(%ebp), %eax
	movl	%eax, %ecx
	call	__ZNK9__gnu_cxx17__normal_iteratorIPNSt7__cxx1112basic_stringIcSt11char_traitsIcESaIcEEESt6vectorIS6_SaIS6_EEEptEv
	movl	%eax, %ecx
	call	__ZNKSt7__cxx1112basic_stringIcSt11char_traitsIcESaIcEE4sizeEv
	movl	%eax, -312(%ebp)
	leal	-13(%ebp), %eax
	movl	%eax, %ecx
	call	__ZNSaINSt7__cxx1112basic_stringIcSt11char_traitsIcESaIcEEEEC1Ev
	leal	-32(%ebp), %eax
	movl	%eax, %ecx
	call	__ZNKSt6vectorINSt7__cxx1112basic_stringIcSt11char_traitsIcESaIcEEESaIS5_EE4sizeEv
	movl	%eax, %ecx
	leal	-324(%ebp), %eax
	leal	-13(%ebp), %edx
	movl	%edx, 4(%esp)
	movl	%ecx, (%esp)
	movl	%eax, %ecx
LEHB13:
	call	__ZNSt6vectorINSt7__cxx1112basic_stringIcSt11char_traitsIcESaIcEEESaIS5_EEC1EjRKS6_
LEHE13:
	subl	$8, %esp
	leal	-13(%ebp), %eax
	movl	%eax, %ecx
	call	__ZNSaINSt7__cxx1112basic_stringIcSt11char_traitsIcESaIcEEEED1Ev
	leal	-312(%ebp), %eax
	movl	%eax, 8(%esp)
	leal	-324(%ebp), %eax
	movl	%eax, 4(%esp)
	leal	-32(%ebp), %eax
	movl	%eax, (%esp)
LEHB14:
	call	__Z5alignRKSt6vectorINSt7__cxx1112basic_stringIcSt11char_traitsIcESaIcEEESaIS5_EERS7_RKi
	leal	-324(%ebp), %eax
	movl	%eax, -12(%ebp)
	movl	-12(%ebp), %eax
	movl	%eax, %ecx
	call	__ZNSt6vectorINSt7__cxx1112basic_stringIcSt11char_traitsIcESaIcEEESaIS5_EE5beginEv
	movl	%eax, -352(%ebp)
	movl	-12(%ebp), %eax
	movl	%eax, %ecx
	call	__ZNSt6vectorINSt7__cxx1112basic_stringIcSt11char_traitsIcESaIcEEESaIS5_EE3endEv
	movl	%eax, -356(%ebp)
L172:
	leal	-356(%ebp), %eax
	movl	%eax, 4(%esp)
	leal	-352(%ebp), %eax
	movl	%eax, (%esp)
	call	__ZN9__gnu_cxxneIPNSt7__cxx1112basic_stringIcSt11char_traitsIcESaIcEEESt6vectorIS6_SaIS6_EEEEbRKNS_17__normal_iteratorIT_T0_EESG_
	testb	%al, %al
	je	L171
	leal	-352(%ebp), %eax
	movl	%eax, %ecx
	call	__ZNK9__gnu_cxx17__normal_iteratorIPNSt7__cxx1112basic_stringIcSt11char_traitsIcESaIcEEESt6vectorIS6_SaIS6_EEEdeEv
	movl	%eax, %edx
	leal	-348(%ebp), %eax
	movl	%edx, (%esp)
	movl	%eax, %ecx
	call	__ZNSt7__cxx1112basic_stringIcSt11char_traitsIcESaIcEEC1ERKS4_
LEHE14:
	subl	$4, %esp
	leal	-348(%ebp), %eax
	movl	%eax, 4(%esp)
	movl	$__ZSt4cout, (%esp)
LEHB15:
	call	__ZStlsIcSt11char_traitsIcESaIcEERSt13basic_ostreamIT_T0_ES7_RKNSt7__cxx1112basic_stringIS4_S5_T1_EE
	movl	$LC9, 4(%esp)
	movl	%eax, (%esp)
	call	__ZStlsISt11char_traitsIcEERSt13basic_ostreamIcT_ES5_PKc
LEHE15:
	leal	-348(%ebp), %eax
	movl	%eax, %ecx
	call	__ZNSt7__cxx1112basic_stringIcSt11char_traitsIcESaIcEED1Ev
	leal	-352(%ebp), %eax
	movl	%eax, %ecx
	call	__ZN9__gnu_cxx17__normal_iteratorIPNSt7__cxx1112basic_stringIcSt11char_traitsIcESaIcEEESt6vectorIS6_SaIS6_EEEppEv
	jmp	L172
L171:
	leal	-284(%ebp), %eax
	movl	%eax, %ecx
LEHB16:
	call	__ZNSt14basic_ifstreamIcSt11char_traitsIcEE5closeEv
LEHE16:
	movl	$0, %ebx
	leal	-324(%ebp), %eax
	movl	%eax, %ecx
	call	__ZNSt6vectorINSt7__cxx1112basic_stringIcSt11char_traitsIcESaIcEEESaIS5_EED1Ev
	leal	-308(%ebp), %eax
	movl	%eax, %ecx
	call	__ZNSt7__cxx1112basic_stringIcSt11char_traitsIcESaIcEED1Ev
L168:
	leal	-284(%ebp), %eax
	movl	%eax, %ecx
	call	__ZNSt14basic_ifstreamIcSt11char_traitsIcEED1Ev
	leal	-32(%ebp), %eax
	movl	%eax, %ecx
	call	__ZNSt6vectorINSt7__cxx1112basic_stringIcSt11char_traitsIcESaIcEEESaIS5_EED1Ev
	movl	%ebx, %eax
	jmp	L186
L183:
	movl	%eax, %ebx
	leal	-13(%ebp), %eax
	movl	%eax, %ecx
	call	__ZNSaINSt7__cxx1112basic_stringIcSt11char_traitsIcESaIcEEEED1Ev
	jmp	L175
L185:
	movl	%eax, %ebx
	leal	-348(%ebp), %eax
	movl	%eax, %ecx
	call	__ZNSt7__cxx1112basic_stringIcSt11char_traitsIcESaIcEED1Ev
	jmp	L177
L184:
	movl	%eax, %ebx
L177:
	leal	-324(%ebp), %eax
	movl	%eax, %ecx
	call	__ZNSt6vectorINSt7__cxx1112basic_stringIcSt11char_traitsIcESaIcEEESaIS5_EED1Ev
	jmp	L175
L182:
	movl	%eax, %ebx
L175:
	leal	-308(%ebp), %eax
	movl	%eax, %ecx
	call	__ZNSt7__cxx1112basic_stringIcSt11char_traitsIcESaIcEED1Ev
	jmp	L178
L181:
	movl	%eax, %ebx
L178:
	leal	-284(%ebp), %eax
	movl	%eax, %ecx
	call	__ZNSt14basic_ifstreamIcSt11char_traitsIcEED1Ev
	jmp	L179
L180:
	movl	%eax, %ebx
L179:
	leal	-32(%ebp), %eax
	movl	%eax, %ecx
	call	__ZNSt6vectorINSt7__cxx1112basic_stringIcSt11char_traitsIcESaIcEEESaIS5_EED1Ev
	movl	%ebx, %eax
	movl	%eax, (%esp)
LEHB17:
	call	__Unwind_Resume
LEHE17:
L186:
	leal	-8(%ebp), %esp
	popl	%ecx
	.cfi_restore 1
	.cfi_def_cfa 1, 0
	popl	%ebx
	.cfi_restore 3
	popl	%ebp
	.cfi_restore 5
	leal	-4(%ecx), %esp
	.cfi_def_cfa 4, 4
	ret
	.cfi_endproc
LFE4441:
	.section	.gcc_except_table,"w"
LLSDA4441:
	.byte	0xff
	.byte	0xff
	.byte	0x1
	.uleb128 LLSDACSE4441-LLSDACSB4441
LLSDACSB4441:
	.uleb128 LEHB10-LFB4441
	.uleb128 LEHE10-LEHB10
	.uleb128 L180-LFB4441
	.uleb128 0
	.uleb128 LEHB11-LFB4441
	.uleb128 LEHE11-LEHB11
	.uleb128 L181-LFB4441
	.uleb128 0
	.uleb128 LEHB12-LFB4441
	.uleb128 LEHE12-LEHB12
	.uleb128 L182-LFB4441
	.uleb128 0
	.uleb128 LEHB13-LFB4441
	.uleb128 LEHE13-LEHB13
	.uleb128 L183-LFB4441
	.uleb128 0
	.uleb128 LEHB14-LFB4441
	.uleb128 LEHE14-LEHB14
	.uleb128 L184-LFB4441
	.uleb128 0
	.uleb128 LEHB15-LFB4441
	.uleb128 LEHE15-LEHB15
	.uleb128 L185-LFB4441
	.uleb128 0
	.uleb128 LEHB16-LFB4441
	.uleb128 LEHE16-LEHB16
	.uleb128 L184-LFB4441
	.uleb128 0
	.uleb128 LEHB17-LFB4441
	.uleb128 LEHE17-LEHB17
	.uleb128 0
	.uleb128 0
LLSDACSE4441:
	.text
	.section	.text$_ZNSt7__cxx1112basic_stringIcSt11char_traitsIcESaIcEE12_Alloc_hiderD1Ev,"x"
	.linkonce discard
	.align 2
	.globl	__ZNSt7__cxx1112basic_stringIcSt11char_traitsIcESaIcEE12_Alloc_hiderD1Ev
	.def	__ZNSt7__cxx1112basic_stringIcSt11char_traitsIcESaIcEE12_Alloc_hiderD1Ev;	.scl	2;	.type	32;	.endef
__ZNSt7__cxx1112basic_stringIcSt11char_traitsIcESaIcEE12_Alloc_hiderD1Ev:
LFB4513:
	.cfi_startproc
	pushl	%ebp
	.cfi_def_cfa_offset 8
	.cfi_offset 5, -8
	movl	%esp, %ebp
	.cfi_def_cfa_register 5
	subl	$24, %esp
	movl	%ecx, -12(%ebp)
	movl	-12(%ebp), %eax
	movl	%eax, %ecx
	call	__ZNSaIcED2Ev
	nop
	leave
	.cfi_restore 5
	.cfi_def_cfa 4, 4
	ret
	.cfi_endproc
LFE4513:
	.section	.text$_ZSt4moveIRSaIcEEONSt16remove_referenceIT_E4typeEOS3_,"x"
	.linkonce discard
	.globl	__ZSt4moveIRSaIcEEONSt16remove_referenceIT_E4typeEOS3_
	.def	__ZSt4moveIRSaIcEEONSt16remove_referenceIT_E4typeEOS3_;	.scl	2;	.type	32;	.endef
__ZSt4moveIRSaIcEEONSt16remove_referenceIT_E4typeEOS3_:
LFB4517:
	.cfi_startproc
	pushl	%ebp
	.cfi_def_cfa_offset 8
	.cfi_offset 5, -8
	movl	%esp, %ebp
	.cfi_def_cfa_register 5
	movl	8(%ebp), %eax
	popl	%ebp
	.cfi_restore 5
	.cfi_def_cfa 4, 4
	ret
	.cfi_endproc
LFE4517:
	.section	.text$_ZNSt6vectorIjSaIjEEC1Ev,"x"
	.linkonce discard
	.align 2
	.globl	__ZNSt6vectorIjSaIjEEC1Ev
	.def	__ZNSt6vectorIjSaIjEEC1Ev;	.scl	2;	.type	32;	.endef
__ZNSt6vectorIjSaIjEEC1Ev:
LFB4681:
	.cfi_startproc
	.cfi_personality 0,___gxx_personality_v0
	.cfi_lsda 0,LLSDA4681
	pushl	%ebp
	.cfi_def_cfa_offset 8
	.cfi_offset 5, -8
	movl	%esp, %ebp
	.cfi_def_cfa_register 5
	subl	$24, %esp
	movl	%ecx, -12(%ebp)
	movl	-12(%ebp), %eax
	movl	%eax, %ecx
	call	__ZNSt12_Vector_baseIjSaIjEEC2Ev
	nop
	leave
	.cfi_restore 5
	.cfi_def_cfa 4, 4
	ret
	.cfi_endproc
LFE4681:
	.section	.gcc_except_table,"w"
LLSDA4681:
	.byte	0xff
	.byte	0xff
	.byte	0x1
	.uleb128 LLSDACSE4681-LLSDACSB4681
LLSDACSB4681:
LLSDACSE4681:
	.section	.text$_ZNSt6vectorIjSaIjEEC1Ev,"x"
	.linkonce discard
	.section	.text$_ZNSt6vectorIjSaIjEED1Ev,"x"
	.linkonce discard
	.align 2
	.globl	__ZNSt6vectorIjSaIjEED1Ev
	.def	__ZNSt6vectorIjSaIjEED1Ev;	.scl	2;	.type	32;	.endef
__ZNSt6vectorIjSaIjEED1Ev:
LFB4684:
	.cfi_startproc
	.cfi_personality 0,___gxx_personality_v0
	.cfi_lsda 0,LLSDA4684
	pushl	%ebp
	.cfi_def_cfa_offset 8
	.cfi_offset 5, -8
	movl	%esp, %ebp
	.cfi_def_cfa_register 5
	subl	$40, %esp
	movl	%ecx, -12(%ebp)
	movl	-12(%ebp), %eax
	movl	%eax, %ecx
	call	__ZNSt12_Vector_baseIjSaIjEE19_M_get_Tp_allocatorEv
	movl	%eax, %ecx
	movl	-12(%ebp), %eax
	movl	4(%eax), %edx
	movl	-12(%ebp), %eax
	movl	(%eax), %eax
	movl	%ecx, 8(%esp)
	movl	%edx, 4(%esp)
	movl	%eax, (%esp)
	call	__ZSt8_DestroyIPjjEvT_S1_RSaIT0_E
	movl	-12(%ebp), %eax
	movl	%eax, %ecx
	call	__ZNSt12_Vector_baseIjSaIjEED2Ev
	nop
	leave
	.cfi_restore 5
	.cfi_def_cfa 4, 4
	ret
	.cfi_endproc
LFE4684:
	.section	.gcc_except_table,"w"
LLSDA4684:
	.byte	0xff
	.byte	0xff
	.byte	0x1
	.uleb128 LLSDACSE4684-LLSDACSB4684
LLSDACSB4684:
LLSDACSE4684:
	.section	.text$_ZNSt6vectorIjSaIjEED1Ev,"x"
	.linkonce discard
	.section	.text$_ZNKSt6vectorINSt7__cxx1112basic_stringIcSt11char_traitsIcESaIcEEESaIS5_EE5beginEv,"x"
	.linkonce discard
	.align 2
	.globl	__ZNKSt6vectorINSt7__cxx1112basic_stringIcSt11char_traitsIcESaIcEEESaIS5_EE5beginEv
	.def	__ZNKSt6vectorINSt7__cxx1112basic_stringIcSt11char_traitsIcESaIcEEESaIS5_EE5beginEv;	.scl	2;	.type	32;	.endef
__ZNKSt6vectorINSt7__cxx1112basic_stringIcSt11char_traitsIcESaIcEEESaIS5_EE5beginEv:
LFB4689:
	.cfi_startproc
	pushl	%ebp
	.cfi_def_cfa_offset 8
	.cfi_offset 5, -8
	movl	%esp, %ebp
	.cfi_def_cfa_register 5
	subl	$56, %esp
	movl	%ecx, -28(%ebp)
	movl	-28(%ebp), %eax
	movl	(%eax), %eax
	movl	%eax, -12(%ebp)
	leal	-16(%ebp), %eax
	leal	-12(%ebp), %edx
	movl	%edx, (%esp)
	movl	%eax, %ecx
	call	__ZN9__gnu_cxx17__normal_iteratorIPKNSt7__cxx1112basic_stringIcSt11char_traitsIcESaIcEEESt6vectorIS6_SaIS6_EEEC1ERKS8_
	subl	$4, %esp
	movl	-16(%ebp), %eax
	leave
	.cfi_restore 5
	.cfi_def_cfa 4, 4
	ret
	.cfi_endproc
LFE4689:
	.section	.text$_ZNKSt6vectorINSt7__cxx1112basic_stringIcSt11char_traitsIcESaIcEEESaIS5_EE3endEv,"x"
	.linkonce discard
	.align 2
	.globl	__ZNKSt6vectorINSt7__cxx1112basic_stringIcSt11char_traitsIcESaIcEEESaIS5_EE3endEv
	.def	__ZNKSt6vectorINSt7__cxx1112basic_stringIcSt11char_traitsIcESaIcEEESaIS5_EE3endEv;	.scl	2;	.type	32;	.endef
__ZNKSt6vectorINSt7__cxx1112basic_stringIcSt11char_traitsIcESaIcEEESaIS5_EE3endEv:
LFB4690:
	.cfi_startproc
	pushl	%ebp
	.cfi_def_cfa_offset 8
	.cfi_offset 5, -8
	movl	%esp, %ebp
	.cfi_def_cfa_register 5
	subl	$56, %esp
	movl	%ecx, -28(%ebp)
	movl	-28(%ebp), %eax
	movl	4(%eax), %eax
	movl	%eax, -12(%ebp)
	leal	-16(%ebp), %eax
	leal	-12(%ebp), %edx
	movl	%edx, (%esp)
	movl	%eax, %ecx
	call	__ZN9__gnu_cxx17__normal_iteratorIPKNSt7__cxx1112basic_stringIcSt11char_traitsIcESaIcEEESt6vectorIS6_SaIS6_EEEC1ERKS8_
	subl	$4, %esp
	movl	-16(%ebp), %eax
	leave
	.cfi_restore 5
	.cfi_def_cfa 4, 4
	ret
	.cfi_endproc
LFE4690:
	.section	.text$_ZNSt6vectorINSt7__cxx1112basic_stringIcSt11char_traitsIcESaIcEEESaIS5_EE5beginEv,"x"
	.linkonce discard
	.align 2
	.globl	__ZNSt6vectorINSt7__cxx1112basic_stringIcSt11char_traitsIcESaIcEEESaIS5_EE5beginEv
	.def	__ZNSt6vectorINSt7__cxx1112basic_stringIcSt11char_traitsIcESaIcEEESaIS5_EE5beginEv;	.scl	2;	.type	32;	.endef
__ZNSt6vectorINSt7__cxx1112basic_stringIcSt11char_traitsIcESaIcEEESaIS5_EE5beginEv:
LFB4691:
	.cfi_startproc
	pushl	%ebp
	.cfi_def_cfa_offset 8
	.cfi_offset 5, -8
	movl	%esp, %ebp
	.cfi_def_cfa_register 5
	subl	$56, %esp
	movl	%ecx, -28(%ebp)
	movl	-28(%ebp), %edx
	leal	-12(%ebp), %eax
	movl	%edx, (%esp)
	movl	%eax, %ecx
	call	__ZN9__gnu_cxx17__normal_iteratorIPNSt7__cxx1112basic_stringIcSt11char_traitsIcESaIcEEESt6vectorIS6_SaIS6_EEEC1ERKS7_
	subl	$4, %esp
	movl	-12(%ebp), %eax
	leave
	.cfi_restore 5
	.cfi_def_cfa 4, 4
	ret
	.cfi_endproc
LFE4691:
	.section	.text$_ZSt5countIN9__gnu_cxx17__normal_iteratorIPKcNSt7__cxx1112basic_stringIcSt11char_traitsIcESaIcEEEEEcENSt15iterator_traitsIT_E15difference_typeESC_SC_RKT0_,"x"
	.linkonce discard
	.globl	__ZSt5countIN9__gnu_cxx17__normal_iteratorIPKcNSt7__cxx1112basic_stringIcSt11char_traitsIcESaIcEEEEEcENSt15iterator_traitsIT_E15difference_typeESC_SC_RKT0_
	.def	__ZSt5countIN9__gnu_cxx17__normal_iteratorIPKcNSt7__cxx1112basic_stringIcSt11char_traitsIcESaIcEEEEEcENSt15iterator_traitsIT_E15difference_typeESC_SC_RKT0_;	.scl	2;	.type	32;	.endef
__ZSt5countIN9__gnu_cxx17__normal_iteratorIPKcNSt7__cxx1112basic_stringIcSt11char_traitsIcESaIcEEEEEcENSt15iterator_traitsIT_E15difference_typeESC_SC_RKT0_:
LFB4694:
	.cfi_startproc
	pushl	%ebp
	.cfi_def_cfa_offset 8
	.cfi_offset 5, -8
	movl	%esp, %ebp
	.cfi_def_cfa_register 5
	subl	$24, %esp
	movl	16(%ebp), %eax
	movl	%eax, (%esp)
	call	__ZN9__gnu_cxx5__ops17__iter_equals_valIKcEENS0_16_Iter_equals_valIT_EERS4_
	movl	%eax, 8(%esp)
	movl	12(%ebp), %eax
	movl	%eax, 4(%esp)
	movl	8(%ebp), %eax
	movl	%eax, (%esp)
	call	__ZSt10__count_ifIN9__gnu_cxx17__normal_iteratorIPKcNSt7__cxx1112basic_stringIcSt11char_traitsIcESaIcEEEEENS0_5__ops16_Iter_equals_valIS2_EEENSt15iterator_traitsIT_E15difference_typeESF_SF_T0_
	leave
	.cfi_restore 5
	.cfi_def_cfa 4, 4
	ret
	.cfi_endproc
LFE4694:
	.section	.text$_ZNSt7__cxx1111basic_regexIcNS_12regex_traitsIcEEEC1EPKcNSt15regex_constants18syntax_option_typeE,"x"
	.linkonce discard
	.align 2
	.globl	__ZNSt7__cxx1111basic_regexIcNS_12regex_traitsIcEEEC1EPKcNSt15regex_constants18syntax_option_typeE
	.def	__ZNSt7__cxx1111basic_regexIcNS_12regex_traitsIcEEEC1EPKcNSt15regex_constants18syntax_option_typeE;	.scl	2;	.type	32;	.endef
__ZNSt7__cxx1111basic_regexIcNS_12regex_traitsIcEEEC1EPKcNSt15regex_constants18syntax_option_typeE:
LFB4704:
	.cfi_startproc
	pushl	%ebp
	.cfi_def_cfa_offset 8
	.cfi_offset 5, -8
	movl	%esp, %ebp
	.cfi_def_cfa_register 5
	subl	$40, %esp
	movl	%ecx, -12(%ebp)
	movl	8(%ebp), %eax
	movl	%eax, (%esp)
	call	__ZNSt11char_traitsIcE6lengthEPKc
	movl	%eax, %edx
	movl	8(%ebp), %eax
	leal	(%edx,%eax), %ecx
	movl	-12(%ebp), %eax
	movl	12(%ebp), %edx
	movl	%edx, 8(%esp)
	movl	%ecx, 4(%esp)
	movl	8(%ebp), %edx
	movl	%edx, (%esp)
	movl	%eax, %ecx
	call	__ZNSt7__cxx1111basic_regexIcNS_12regex_traitsIcEEEC1IPKcEET_S7_NSt15regex_constants18syntax_option_typeE
	subl	$12, %esp
	nop
	leave
	.cfi_restore 5
	.cfi_def_cfa 4, 4
	ret	$8
	.cfi_endproc
LFE4704:
	.section	.text$_ZNSt12__shared_ptrIKNSt8__detail4_NFAINSt7__cxx1112regex_traitsIcEEEELN9__gnu_cxx12_Lock_policyE2EED2Ev,"x"
	.linkonce discard
	.align 2
	.globl	__ZNSt12__shared_ptrIKNSt8__detail4_NFAINSt7__cxx1112regex_traitsIcEEEELN9__gnu_cxx12_Lock_policyE2EED2Ev
	.def	__ZNSt12__shared_ptrIKNSt8__detail4_NFAINSt7__cxx1112regex_traitsIcEEEELN9__gnu_cxx12_Lock_policyE2EED2Ev;	.scl	2;	.type	32;	.endef
__ZNSt12__shared_ptrIKNSt8__detail4_NFAINSt7__cxx1112regex_traitsIcEEEELN9__gnu_cxx12_Lock_policyE2EED2Ev:
LFB4708:
	.cfi_startproc
	pushl	%ebp
	.cfi_def_cfa_offset 8
	.cfi_offset 5, -8
	movl	%esp, %ebp
	.cfi_def_cfa_register 5
	subl	$24, %esp
	movl	%ecx, -12(%ebp)
	movl	-12(%ebp), %eax
	addl	$4, %eax
	movl	%eax, %ecx
	call	__ZNSt14__shared_countILN9__gnu_cxx12_Lock_policyE2EED1Ev
	nop
	leave
	.cfi_restore 5
	.cfi_def_cfa 4, 4
	ret
	.cfi_endproc
LFE4708:
	.section	.text$_ZNSt10shared_ptrIKNSt8__detail4_NFAINSt7__cxx1112regex_traitsIcEEEEED1Ev,"x"
	.linkonce discard
	.align 2
	.globl	__ZNSt10shared_ptrIKNSt8__detail4_NFAINSt7__cxx1112regex_traitsIcEEEEED1Ev
	.def	__ZNSt10shared_ptrIKNSt8__detail4_NFAINSt7__cxx1112regex_traitsIcEEEEED1Ev;	.scl	2;	.type	32;	.endef
__ZNSt10shared_ptrIKNSt8__detail4_NFAINSt7__cxx1112regex_traitsIcEEEEED1Ev:
LFB4711:
	.cfi_startproc
	pushl	%ebp
	.cfi_def_cfa_offset 8
	.cfi_offset 5, -8
	movl	%esp, %ebp
	.cfi_def_cfa_register 5
	subl	$24, %esp
	movl	%ecx, -12(%ebp)
	movl	-12(%ebp), %eax
	movl	%eax, %ecx
	call	__ZNSt12__shared_ptrIKNSt8__detail4_NFAINSt7__cxx1112regex_traitsIcEEEELN9__gnu_cxx12_Lock_policyE2EED2Ev
	nop
	leave
	.cfi_restore 5
	.cfi_def_cfa 4, 4
	ret
	.cfi_endproc
LFE4711:
	.section	.text$_ZNSt7__cxx1111basic_regexIcNS_12regex_traitsIcEEED1Ev,"x"
	.linkonce discard
	.align 2
	.globl	__ZNSt7__cxx1111basic_regexIcNS_12regex_traitsIcEEED1Ev
	.def	__ZNSt7__cxx1111basic_regexIcNS_12regex_traitsIcEEED1Ev;	.scl	2;	.type	32;	.endef
__ZNSt7__cxx1111basic_regexIcNS_12regex_traitsIcEEED1Ev:
LFB4713:
	.cfi_startproc
	pushl	%ebp
	.cfi_def_cfa_offset 8
	.cfi_offset 5, -8
	movl	%esp, %ebp
	.cfi_def_cfa_register 5
	subl	$24, %esp
	movl	%ecx, -12(%ebp)
	movl	-12(%ebp), %eax
	addl	$8, %eax
	movl	%eax, %ecx
	call	__ZNSt10shared_ptrIKNSt8__detail4_NFAINSt7__cxx1112regex_traitsIcEEEEED1Ev
	movl	-12(%ebp), %eax
	addl	$4, %eax
	movl	%eax, %ecx
	call	__ZNSt6localeD1Ev
	nop
	leave
	.cfi_restore 5
	.cfi_def_cfa 4, 4
	ret
	.cfi_endproc
LFE4713:
	.section	.text$_ZSt13regex_replaceINSt7__cxx1112regex_traitsIcEEcSt11char_traitsIcESaIcES4_S5_ENS0_12basic_stringIT0_T1_T2_EERKSA_RKNS0_11basic_regexIS7_T_EERKNS6_IS7_T3_T4_EENSt15regex_constants15match_flag_typeE,"x"
	.linkonce discard
	.globl	__ZSt13regex_replaceINSt7__cxx1112regex_traitsIcEEcSt11char_traitsIcESaIcES4_S5_ENS0_12basic_stringIT0_T1_T2_EERKSA_RKNS0_11basic_regexIS7_T_EERKNS6_IS7_T3_T4_EENSt15regex_constants15match_flag_typeE
	.def	__ZSt13regex_replaceINSt7__cxx1112regex_traitsIcEEcSt11char_traitsIcESaIcES4_S5_ENS0_12basic_stringIT0_T1_T2_EERKSA_RKNS0_11basic_regexIS7_T_EERKNS6_IS7_T3_T4_EENSt15regex_constants15match_flag_typeE;	.scl	2;	.type	32;	.endef
__ZSt13regex_replaceINSt7__cxx1112regex_traitsIcEEcSt11char_traitsIcESaIcES4_S5_ENS0_12basic_stringIT0_T1_T2_EERKSA_RKNS0_11basic_regexIS7_T_EERKNS6_IS7_T3_T4_EENSt15regex_constants15match_flag_typeE:
LFB4714:
	.cfi_startproc
	.cfi_personality 0,___gxx_personality_v0
	.cfi_lsda 0,LLSDA4714
	pushl	%ebp
	.cfi_def_cfa_offset 8
	.cfi_offset 5, -8
	movl	%esp, %ebp
	.cfi_def_cfa_register 5
	pushl	%esi
	pushl	%ebx
	subl	$32, %esp
	.cfi_offset 6, -12
	.cfi_offset 3, -16
	movl	8(%ebp), %ecx
	call	__ZNSt7__cxx1112basic_stringIcSt11char_traitsIcESaIcEEC1Ev
	movl	12(%ebp), %eax
	movl	%eax, %ecx
	call	__ZNKSt7__cxx1112basic_stringIcSt11char_traitsIcESaIcEE3endEv
	movl	%eax, %esi
	movl	12(%ebp), %eax
	movl	%eax, %ecx
	call	__ZNKSt7__cxx1112basic_stringIcSt11char_traitsIcESaIcEE5beginEv
	movl	%eax, %ebx
	movl	8(%ebp), %eax
	movl	%eax, (%esp)
LEHB18:
	call	__ZSt13back_inserterINSt7__cxx1112basic_stringIcSt11char_traitsIcESaIcEEEESt20back_insert_iteratorIT_ERS7_
	movl	%eax, %edx
	movl	24(%ebp), %eax
	movl	%eax, 20(%esp)
	movl	20(%ebp), %eax
	movl	%eax, 16(%esp)
	movl	16(%ebp), %eax
	movl	%eax, 12(%esp)
	movl	%esi, 8(%esp)
	movl	%ebx, 4(%esp)
	movl	%edx, (%esp)
	call	__ZSt13regex_replaceISt20back_insert_iteratorINSt7__cxx1112basic_stringIcSt11char_traitsIcESaIcEEEEN9__gnu_cxx17__normal_iteratorIPKcS6_EENS1_12regex_traitsIcEEcS4_S5_ET_SF_T0_SG_RKNS1_11basic_regexIT2_T1_EERKNS2_ISI_T3_T4_EENSt15regex_constants15match_flag_typeE
LEHE18:
	jmp	L208
L207:
	movl	%eax, %ebx
	movl	8(%ebp), %ecx
	call	__ZNSt7__cxx1112basic_stringIcSt11char_traitsIcESaIcEED1Ev
	movl	%ebx, %eax
	movl	%eax, (%esp)
LEHB19:
	call	__Unwind_Resume
LEHE19:
L208:
	movl	8(%ebp), %eax
	addl	$32, %esp
	popl	%ebx
	.cfi_restore 3
	popl	%esi
	.cfi_restore 6
	popl	%ebp
	.cfi_restore 5
	.cfi_def_cfa 4, 4
	ret
	.cfi_endproc
LFE4714:
	.section	.gcc_except_table,"w"
LLSDA4714:
	.byte	0xff
	.byte	0xff
	.byte	0x1
	.uleb128 LLSDACSE4714-LLSDACSB4714
LLSDACSB4714:
	.uleb128 LEHB18-LFB4714
	.uleb128 LEHE18-LEHB18
	.uleb128 L207-LFB4714
	.uleb128 0
	.uleb128 LEHB19-LFB4714
	.uleb128 LEHE19-LEHB19
	.uleb128 0
	.uleb128 0
LLSDACSE4714:
	.section	.text$_ZSt13regex_replaceINSt7__cxx1112regex_traitsIcEEcSt11char_traitsIcESaIcES4_S5_ENS0_12basic_stringIT0_T1_T2_EERKSA_RKNS0_11basic_regexIS7_T_EERKNS6_IS7_T3_T4_EENSt15regex_constants15match_flag_typeE,"x"
	.linkonce discard
	.section	.text$_ZSt4findIN9__gnu_cxx17__normal_iteratorIPcNSt7__cxx1112basic_stringIcSt11char_traitsIcESaIcEEEEEcET_SA_SA_RKT0_,"x"
	.linkonce discard
	.globl	__ZSt4findIN9__gnu_cxx17__normal_iteratorIPcNSt7__cxx1112basic_stringIcSt11char_traitsIcESaIcEEEEEcET_SA_SA_RKT0_
	.def	__ZSt4findIN9__gnu_cxx17__normal_iteratorIPcNSt7__cxx1112basic_stringIcSt11char_traitsIcESaIcEEEEEcET_SA_SA_RKT0_;	.scl	2;	.type	32;	.endef
__ZSt4findIN9__gnu_cxx17__normal_iteratorIPcNSt7__cxx1112basic_stringIcSt11char_traitsIcESaIcEEEEEcET_SA_SA_RKT0_:
LFB4717:
	.cfi_startproc
	pushl	%ebp
	.cfi_def_cfa_offset 8
	.cfi_offset 5, -8
	movl	%esp, %ebp
	.cfi_def_cfa_register 5
	subl	$24, %esp
	movl	16(%ebp), %eax
	movl	%eax, (%esp)
	call	__ZN9__gnu_cxx5__ops17__iter_equals_valIKcEENS0_16_Iter_equals_valIT_EERS4_
	movl	%eax, 8(%esp)
	movl	12(%ebp), %eax
	movl	%eax, 4(%esp)
	movl	8(%ebp), %eax
	movl	%eax, (%esp)
	call	__ZSt9__find_ifIN9__gnu_cxx17__normal_iteratorIPcNSt7__cxx1112basic_stringIcSt11char_traitsIcESaIcEEEEENS0_5__ops16_Iter_equals_valIKcEEET_SE_SE_T0_
	leave
	.cfi_restore 5
	.cfi_def_cfa 4, 4
	ret
	.cfi_endproc
LFE4717:
	.section	.text$_ZN9__gnu_cxxneIPcNSt7__cxx1112basic_stringIcSt11char_traitsIcESaIcEEEEEbRKNS_17__normal_iteratorIT_T0_EESD_,"x"
	.linkonce discard
	.globl	__ZN9__gnu_cxxneIPcNSt7__cxx1112basic_stringIcSt11char_traitsIcESaIcEEEEEbRKNS_17__normal_iteratorIT_T0_EESD_
	.def	__ZN9__gnu_cxxneIPcNSt7__cxx1112basic_stringIcSt11char_traitsIcESaIcEEEEEbRKNS_17__normal_iteratorIT_T0_EESD_;	.scl	2;	.type	32;	.endef
__ZN9__gnu_cxxneIPcNSt7__cxx1112basic_stringIcSt11char_traitsIcESaIcEEEEEbRKNS_17__normal_iteratorIT_T0_EESD_:
LFB4718:
	.cfi_startproc
	pushl	%ebp
	.cfi_def_cfa_offset 8
	.cfi_offset 5, -8
	movl	%esp, %ebp
	.cfi_def_cfa_register 5
	pushl	%ebx
	subl	$4, %esp
	.cfi_offset 3, -12
	movl	8(%ebp), %ecx
	call	__ZNK9__gnu_cxx17__normal_iteratorIPcNSt7__cxx1112basic_stringIcSt11char_traitsIcESaIcEEEE4baseEv
	movl	(%eax), %ebx
	movl	12(%ebp), %eax
	movl	%eax, %ecx
	call	__ZNK9__gnu_cxx17__normal_iteratorIPcNSt7__cxx1112basic_stringIcSt11char_traitsIcESaIcEEEE4baseEv
	movl	(%eax), %eax
	cmpl	%eax, %ebx
	setne	%al
	addl	$4, %esp
	popl	%ebx
	.cfi_restore 3
	popl	%ebp
	.cfi_restore 5
	.cfi_def_cfa 4, 4
	ret
	.cfi_endproc
LFE4718:
	.section	.text$_ZNK9__gnu_cxx17__normal_iteratorIPcNSt7__cxx1112basic_stringIcSt11char_traitsIcESaIcEEEEdeEv,"x"
	.linkonce discard
	.align 2
	.globl	__ZNK9__gnu_cxx17__normal_iteratorIPcNSt7__cxx1112basic_stringIcSt11char_traitsIcESaIcEEEEdeEv
	.def	__ZNK9__gnu_cxx17__normal_iteratorIPcNSt7__cxx1112basic_stringIcSt11char_traitsIcESaIcEEEEdeEv;	.scl	2;	.type	32;	.endef
__ZNK9__gnu_cxx17__normal_iteratorIPcNSt7__cxx1112basic_stringIcSt11char_traitsIcESaIcEEEEdeEv:
LFB4719:
	.cfi_startproc
	pushl	%ebp
	.cfi_def_cfa_offset 8
	.cfi_offset 5, -8
	movl	%esp, %ebp
	.cfi_def_cfa_register 5
	subl	$4, %esp
	movl	%ecx, -4(%ebp)
	movl	-4(%ebp), %eax
	movl	(%eax), %eax
	leave
	.cfi_restore 5
	.cfi_def_cfa 4, 4
	ret
	.cfi_endproc
LFE4719:
	.text
	.def	__ZSt9transformIN9__gnu_cxx17__normal_iteratorIPKNSt7__cxx1112basic_stringIcSt11char_traitsIcESaIcEEESt6vectorIS7_SaIS7_EEEENS1_IPS7_SC_EEZ5alignRKSC_RSC_RKiEUlRS8_E_ET0_T_SO_SN_T1_;	.scl	3;	.type	32;	.endef
__ZSt9transformIN9__gnu_cxx17__normal_iteratorIPKNSt7__cxx1112basic_stringIcSt11char_traitsIcESaIcEEESt6vectorIS7_SaIS7_EEEENS1_IPS7_SC_EEZ5alignRKSC_RSC_RKiEUlRS8_E_ET0_T_SO_SN_T1_:
LFB4721:
	.cfi_startproc
	pushl	%ebp
	.cfi_def_cfa_offset 8
	.cfi_offset 5, -8
	movl	%esp, %ebp
	.cfi_def_cfa_register 5
	subl	$56, %esp
L217:
	leal	12(%ebp), %eax
	movl	%eax, 4(%esp)
	leal	8(%ebp), %eax
	movl	%eax, (%esp)
	call	__ZN9__gnu_cxxneIPKNSt7__cxx1112basic_stringIcSt11char_traitsIcESaIcEEESt6vectorIS6_SaIS6_EEEEbRKNS_17__normal_iteratorIT_T0_EESH_
	testb	%al, %al
	je	L216
	leal	8(%ebp), %ecx
	call	__ZNK9__gnu_cxx17__normal_iteratorIPKNSt7__cxx1112basic_stringIcSt11char_traitsIcESaIcEEESt6vectorIS6_SaIS6_EEEdeEv
	movl	%eax, %edx
	leal	-32(%ebp), %eax
	movl	%edx, 4(%esp)
	leal	20(%ebp), %edx
	movl	%edx, (%esp)
	movl	%eax, %ecx
	call	__ZZ5alignRKSt6vectorINSt7__cxx1112basic_stringIcSt11char_traitsIcESaIcEEESaIS5_EERS7_RKiENKUlRKS5_E_clESE_
	subl	$8, %esp
	leal	16(%ebp), %eax
	movl	%eax, %ecx
	call	__ZNK9__gnu_cxx17__normal_iteratorIPNSt7__cxx1112basic_stringIcSt11char_traitsIcESaIcEEESt6vectorIS6_SaIS6_EEEdeEv
	movl	%eax, %edx
	leal	-32(%ebp), %eax
	movl	%eax, (%esp)
	movl	%edx, %ecx
	call	__ZNSt7__cxx1112basic_stringIcSt11char_traitsIcESaIcEEaSEOS4_
	subl	$4, %esp
	leal	-32(%ebp), %eax
	movl	%eax, %ecx
	call	__ZNSt7__cxx1112basic_stringIcSt11char_traitsIcESaIcEED1Ev
	leal	8(%ebp), %ecx
	call	__ZN9__gnu_cxx17__normal_iteratorIPKNSt7__cxx1112basic_stringIcSt11char_traitsIcESaIcEEESt6vectorIS6_SaIS6_EEEppEv
	leal	16(%ebp), %eax
	movl	%eax, %ecx
	call	__ZN9__gnu_cxx17__normal_iteratorIPNSt7__cxx1112basic_stringIcSt11char_traitsIcESaIcEEESt6vectorIS6_SaIS6_EEEppEv
	jmp	L217
L216:
	movl	16(%ebp), %eax
	leave
	.cfi_restore 5
	.cfi_def_cfa 4, 4
	ret
	.cfi_endproc
LFE4721:
	.section	.text$_ZNSt6vectorINSt7__cxx1112basic_stringIcSt11char_traitsIcESaIcEEESaIS5_EEC1Ev,"x"
	.linkonce discard
	.align 2
	.globl	__ZNSt6vectorINSt7__cxx1112basic_stringIcSt11char_traitsIcESaIcEEESaIS5_EEC1Ev
	.def	__ZNSt6vectorINSt7__cxx1112basic_stringIcSt11char_traitsIcESaIcEEESaIS5_EEC1Ev;	.scl	2;	.type	32;	.endef
__ZNSt6vectorINSt7__cxx1112basic_stringIcSt11char_traitsIcESaIcEEESaIS5_EEC1Ev:
LFB4727:
	.cfi_startproc
	.cfi_personality 0,___gxx_personality_v0
	.cfi_lsda 0,LLSDA4727
	pushl	%ebp
	.cfi_def_cfa_offset 8
	.cfi_offset 5, -8
	movl	%esp, %ebp
	.cfi_def_cfa_register 5
	subl	$24, %esp
	movl	%ecx, -12(%ebp)
	movl	-12(%ebp), %eax
	movl	%eax, %ecx
	call	__ZNSt12_Vector_baseINSt7__cxx1112basic_stringIcSt11char_traitsIcESaIcEEESaIS5_EEC2Ev
	nop
	leave
	.cfi_restore 5
	.cfi_def_cfa 4, 4
	ret
	.cfi_endproc
LFE4727:
	.section	.gcc_except_table,"w"
LLSDA4727:
	.byte	0xff
	.byte	0xff
	.byte	0x1
	.uleb128 LLSDACSE4727-LLSDACSB4727
LLSDACSB4727:
LLSDACSE4727:
	.section	.text$_ZNSt6vectorINSt7__cxx1112basic_stringIcSt11char_traitsIcESaIcEEESaIS5_EEC1Ev,"x"
	.linkonce discard
	.section	.text$_ZNSt6vectorINSt7__cxx1112basic_stringIcSt11char_traitsIcESaIcEEESaIS5_EED1Ev,"x"
	.linkonce discard
	.align 2
	.globl	__ZNSt6vectorINSt7__cxx1112basic_stringIcSt11char_traitsIcESaIcEEESaIS5_EED1Ev
	.def	__ZNSt6vectorINSt7__cxx1112basic_stringIcSt11char_traitsIcESaIcEEESaIS5_EED1Ev;	.scl	2;	.type	32;	.endef
__ZNSt6vectorINSt7__cxx1112basic_stringIcSt11char_traitsIcESaIcEEESaIS5_EED1Ev:
LFB4730:
	.cfi_startproc
	.cfi_personality 0,___gxx_personality_v0
	.cfi_lsda 0,LLSDA4730
	pushl	%ebp
	.cfi_def_cfa_offset 8
	.cfi_offset 5, -8
	movl	%esp, %ebp
	.cfi_def_cfa_register 5
	subl	$40, %esp
	movl	%ecx, -12(%ebp)
	movl	-12(%ebp), %eax
	movl	%eax, %ecx
	call	__ZNSt12_Vector_baseINSt7__cxx1112basic_stringIcSt11char_traitsIcESaIcEEESaIS5_EE19_M_get_Tp_allocatorEv
	movl	%eax, %ecx
	movl	-12(%ebp), %eax
	movl	4(%eax), %edx
	movl	-12(%ebp), %eax
	movl	(%eax), %eax
	movl	%ecx, 8(%esp)
	movl	%edx, 4(%esp)
	movl	%eax, (%esp)
	call	__ZSt8_DestroyIPNSt7__cxx1112basic_stringIcSt11char_traitsIcESaIcEEES5_EvT_S7_RSaIT0_E
	movl	-12(%ebp), %eax
	movl	%eax, %ecx
	call	__ZNSt12_Vector_baseINSt7__cxx1112basic_stringIcSt11char_traitsIcESaIcEEESaIS5_EED2Ev
	nop
	leave
	.cfi_restore 5
	.cfi_def_cfa 4, 4
	ret
	.cfi_endproc
LFE4730:
	.section	.gcc_except_table,"w"
LLSDA4730:
	.byte	0xff
	.byte	0xff
	.byte	0x1
	.uleb128 LLSDACSE4730-LLSDACSB4730
LLSDACSB4730:
LLSDACSE4730:
	.section	.text$_ZNSt6vectorINSt7__cxx1112basic_stringIcSt11char_traitsIcESaIcEEESaIS5_EED1Ev,"x"
	.linkonce discard
	.section	.text$_ZNSt6vectorINSt7__cxx1112basic_stringIcSt11char_traitsIcESaIcEEESaIS5_EE9push_backERKS5_,"x"
	.linkonce discard
	.align 2
	.globl	__ZNSt6vectorINSt7__cxx1112basic_stringIcSt11char_traitsIcESaIcEEESaIS5_EE9push_backERKS5_
	.def	__ZNSt6vectorINSt7__cxx1112basic_stringIcSt11char_traitsIcESaIcEEESaIS5_EE9push_backERKS5_;	.scl	2;	.type	32;	.endef
__ZNSt6vectorINSt7__cxx1112basic_stringIcSt11char_traitsIcESaIcEEESaIS5_EE9push_backERKS5_:
LFB4744:
	.cfi_startproc
	pushl	%ebp
	.cfi_def_cfa_offset 8
	.cfi_offset 5, -8
	movl	%esp, %ebp
	.cfi_def_cfa_register 5
	subl	$40, %esp
	movl	%ecx, -12(%ebp)
	movl	-12(%ebp), %eax
	movl	4(%eax), %edx
	movl	-12(%ebp), %eax
	movl	8(%eax), %eax
	cmpl	%eax, %edx
	je	L222
	movl	-12(%ebp), %eax
	movl	4(%eax), %edx
	movl	-12(%ebp), %eax
	movl	8(%ebp), %ecx
	movl	%ecx, 8(%esp)
	movl	%edx, 4(%esp)
	movl	%eax, (%esp)
	call	__ZNSt16allocator_traitsISaINSt7__cxx1112basic_stringIcSt11char_traitsIcESaIcEEEEE9constructIS5_JRKS5_EEEvRS6_PT_DpOT0_
	movl	-12(%ebp), %eax
	movl	4(%eax), %eax
	leal	24(%eax), %edx
	movl	-12(%ebp), %eax
	movl	%edx, 4(%eax)
	jmp	L224
L222:
	movl	-12(%ebp), %eax
	movl	8(%ebp), %edx
	movl	%edx, (%esp)
	movl	%eax, %ecx
	call	__ZNSt6vectorINSt7__cxx1112basic_stringIcSt11char_traitsIcESaIcEEESaIS5_EE19_M_emplace_back_auxIJRKS5_EEEvDpOT_
	subl	$4, %esp
L224:
	nop
	leave
	.cfi_restore 5
	.cfi_def_cfa 4, 4
	ret	$4
	.cfi_endproc
LFE4744:
	.section	.text$_ZNSt6vectorINSt7__cxx1112basic_stringIcSt11char_traitsIcESaIcEEESaIS5_EE3endEv,"x"
	.linkonce discard
	.align 2
	.globl	__ZNSt6vectorINSt7__cxx1112basic_stringIcSt11char_traitsIcESaIcEEESaIS5_EE3endEv
	.def	__ZNSt6vectorINSt7__cxx1112basic_stringIcSt11char_traitsIcESaIcEEESaIS5_EE3endEv;	.scl	2;	.type	32;	.endef
__ZNSt6vectorINSt7__cxx1112basic_stringIcSt11char_traitsIcESaIcEEESaIS5_EE3endEv:
LFB4745:
	.cfi_startproc
	pushl	%ebp
	.cfi_def_cfa_offset 8
	.cfi_offset 5, -8
	movl	%esp, %ebp
	.cfi_def_cfa_register 5
	subl	$56, %esp
	movl	%ecx, -28(%ebp)
	movl	-28(%ebp), %eax
	leal	4(%eax), %edx
	leal	-12(%ebp), %eax
	movl	%edx, (%esp)
	movl	%eax, %ecx
	call	__ZN9__gnu_cxx17__normal_iteratorIPNSt7__cxx1112basic_stringIcSt11char_traitsIcESaIcEEESt6vectorIS6_SaIS6_EEEC1ERKS7_
	subl	$4, %esp
	movl	-12(%ebp), %eax
	leave
	.cfi_restore 5
	.cfi_def_cfa 4, 4
	ret
	.cfi_endproc
LFE4745:
	.section	.text$_ZN9__gnu_cxxeqIPNSt7__cxx1112basic_stringIcSt11char_traitsIcESaIcEEESt6vectorIS6_SaIS6_EEEEbRKNS_17__normal_iteratorIT_T0_EESG_,"x"
	.linkonce discard
	.globl	__ZN9__gnu_cxxeqIPNSt7__cxx1112basic_stringIcSt11char_traitsIcESaIcEEESt6vectorIS6_SaIS6_EEEEbRKNS_17__normal_iteratorIT_T0_EESG_
	.def	__ZN9__gnu_cxxeqIPNSt7__cxx1112basic_stringIcSt11char_traitsIcESaIcEEESt6vectorIS6_SaIS6_EEEEbRKNS_17__normal_iteratorIT_T0_EESG_;	.scl	2;	.type	32;	.endef
__ZN9__gnu_cxxeqIPNSt7__cxx1112basic_stringIcSt11char_traitsIcESaIcEEESt6vectorIS6_SaIS6_EEEEbRKNS_17__normal_iteratorIT_T0_EESG_:
LFB4746:
	.cfi_startproc
	pushl	%ebp
	.cfi_def_cfa_offset 8
	.cfi_offset 5, -8
	movl	%esp, %ebp
	.cfi_def_cfa_register 5
	pushl	%ebx
	subl	$4, %esp
	.cfi_offset 3, -12
	movl	8(%ebp), %ecx
	call	__ZNK9__gnu_cxx17__normal_iteratorIPNSt7__cxx1112basic_stringIcSt11char_traitsIcESaIcEEESt6vectorIS6_SaIS6_EEE4baseEv
	movl	(%eax), %ebx
	movl	12(%ebp), %eax
	movl	%eax, %ecx
	call	__ZNK9__gnu_cxx17__normal_iteratorIPNSt7__cxx1112basic_stringIcSt11char_traitsIcESaIcEEESt6vectorIS6_SaIS6_EEE4baseEv
	movl	(%eax), %eax
	cmpl	%eax, %ebx
	sete	%al
	addl	$4, %esp
	popl	%ebx
	.cfi_restore 3
	popl	%ebp
	.cfi_restore 5
	.cfi_def_cfa 4, 4
	ret
	.cfi_endproc
LFE4746:
	.section	.text$_ZN9__gnu_cxx17__normal_iteratorIPNSt7__cxx1112basic_stringIcSt11char_traitsIcESaIcEEESt6vectorIS6_SaIS6_EEEppEv,"x"
	.linkonce discard
	.align 2
	.globl	__ZN9__gnu_cxx17__normal_iteratorIPNSt7__cxx1112basic_stringIcSt11char_traitsIcESaIcEEESt6vectorIS6_SaIS6_EEEppEv
	.def	__ZN9__gnu_cxx17__normal_iteratorIPNSt7__cxx1112basic_stringIcSt11char_traitsIcESaIcEEESt6vectorIS6_SaIS6_EEEppEv;	.scl	2;	.type	32;	.endef
__ZN9__gnu_cxx17__normal_iteratorIPNSt7__cxx1112basic_stringIcSt11char_traitsIcESaIcEEESt6vectorIS6_SaIS6_EEEppEv:
LFB4747:
	.cfi_startproc
	pushl	%ebp
	.cfi_def_cfa_offset 8
	.cfi_offset 5, -8
	movl	%esp, %ebp
	.cfi_def_cfa_register 5
	subl	$4, %esp
	movl	%ecx, -4(%ebp)
	movl	-4(%ebp), %eax
	movl	(%eax), %eax
	leal	24(%eax), %edx
	movl	-4(%ebp), %eax
	movl	%edx, (%eax)
	movl	-4(%ebp), %eax
	leave
	.cfi_restore 5
	.cfi_def_cfa 4, 4
	ret
	.cfi_endproc
LFE4747:
	.section	.text$_ZN9__gnu_cxxneIPNSt7__cxx1112basic_stringIcSt11char_traitsIcESaIcEEESt6vectorIS6_SaIS6_EEEEbRKNS_17__normal_iteratorIT_T0_EESG_,"x"
	.linkonce discard
	.globl	__ZN9__gnu_cxxneIPNSt7__cxx1112basic_stringIcSt11char_traitsIcESaIcEEESt6vectorIS6_SaIS6_EEEEbRKNS_17__normal_iteratorIT_T0_EESG_
	.def	__ZN9__gnu_cxxneIPNSt7__cxx1112basic_stringIcSt11char_traitsIcESaIcEEESt6vectorIS6_SaIS6_EEEEbRKNS_17__normal_iteratorIT_T0_EESG_;	.scl	2;	.type	32;	.endef
__ZN9__gnu_cxxneIPNSt7__cxx1112basic_stringIcSt11char_traitsIcESaIcEEESt6vectorIS6_SaIS6_EEEEbRKNS_17__normal_iteratorIT_T0_EESG_:
LFB4748:
	.cfi_startproc
	pushl	%ebp
	.cfi_def_cfa_offset 8
	.cfi_offset 5, -8
	movl	%esp, %ebp
	.cfi_def_cfa_register 5
	pushl	%ebx
	subl	$4, %esp
	.cfi_offset 3, -12
	movl	8(%ebp), %ecx
	call	__ZNK9__gnu_cxx17__normal_iteratorIPNSt7__cxx1112basic_stringIcSt11char_traitsIcESaIcEEESt6vectorIS6_SaIS6_EEE4baseEv
	movl	(%eax), %ebx
	movl	12(%ebp), %eax
	movl	%eax, %ecx
	call	__ZNK9__gnu_cxx17__normal_iteratorIPNSt7__cxx1112basic_stringIcSt11char_traitsIcESaIcEEESt6vectorIS6_SaIS6_EEE4baseEv
	movl	(%eax), %eax
	cmpl	%eax, %ebx
	setne	%al
	addl	$4, %esp
	popl	%ebx
	.cfi_restore 3
	popl	%ebp
	.cfi_restore 5
	.cfi_def_cfa 4, 4
	ret
	.cfi_endproc
LFE4748:
	.section	.text$_ZNK9__gnu_cxx17__normal_iteratorIPNSt7__cxx1112basic_stringIcSt11char_traitsIcESaIcEEESt6vectorIS6_SaIS6_EEEdeEv,"x"
	.linkonce discard
	.align 2
	.globl	__ZNK9__gnu_cxx17__normal_iteratorIPNSt7__cxx1112basic_stringIcSt11char_traitsIcESaIcEEESt6vectorIS6_SaIS6_EEEdeEv
	.def	__ZNK9__gnu_cxx17__normal_iteratorIPNSt7__cxx1112basic_stringIcSt11char_traitsIcESaIcEEESt6vectorIS6_SaIS6_EEEdeEv;	.scl	2;	.type	32;	.endef
__ZNK9__gnu_cxx17__normal_iteratorIPNSt7__cxx1112basic_stringIcSt11char_traitsIcESaIcEEESt6vectorIS6_SaIS6_EEEdeEv:
LFB4749:
	.cfi_startproc
	pushl	%ebp
	.cfi_def_cfa_offset 8
	.cfi_offset 5, -8
	movl	%esp, %ebp
	.cfi_def_cfa_register 5
	subl	$4, %esp
	movl	%ecx, -4(%ebp)
	movl	-4(%ebp), %eax
	movl	(%eax), %eax
	leave
	.cfi_restore 5
	.cfi_def_cfa 4, 4
	ret
	.cfi_endproc
LFE4749:
	.section	.text$_ZNK9__gnu_cxx17__normal_iteratorIPNSt7__cxx1112basic_stringIcSt11char_traitsIcESaIcEEESt6vectorIS6_SaIS6_EEEptEv,"x"
	.linkonce discard
	.align 2
	.globl	__ZNK9__gnu_cxx17__normal_iteratorIPNSt7__cxx1112basic_stringIcSt11char_traitsIcESaIcEEESt6vectorIS6_SaIS6_EEEptEv
	.def	__ZNK9__gnu_cxx17__normal_iteratorIPNSt7__cxx1112basic_stringIcSt11char_traitsIcESaIcEEESt6vectorIS6_SaIS6_EEEptEv;	.scl	2;	.type	32;	.endef
__ZNK9__gnu_cxx17__normal_iteratorIPNSt7__cxx1112basic_stringIcSt11char_traitsIcESaIcEEESt6vectorIS6_SaIS6_EEEptEv:
LFB4750:
	.cfi_startproc
	pushl	%ebp
	.cfi_def_cfa_offset 8
	.cfi_offset 5, -8
	movl	%esp, %ebp
	.cfi_def_cfa_register 5
	subl	$4, %esp
	movl	%ecx, -4(%ebp)
	movl	-4(%ebp), %eax
	movl	(%eax), %eax
	leave
	.cfi_restore 5
	.cfi_def_cfa 4, 4
	ret
	.cfi_endproc
LFE4750:
	.section	.text$_ZNKSt6vectorINSt7__cxx1112basic_stringIcSt11char_traitsIcESaIcEEESaIS5_EE4sizeEv,"x"
	.linkonce discard
	.align 2
	.globl	__ZNKSt6vectorINSt7__cxx1112basic_stringIcSt11char_traitsIcESaIcEEESaIS5_EE4sizeEv
	.def	__ZNKSt6vectorINSt7__cxx1112basic_stringIcSt11char_traitsIcESaIcEEESaIS5_EE4sizeEv;	.scl	2;	.type	32;	.endef
__ZNKSt6vectorINSt7__cxx1112basic_stringIcSt11char_traitsIcESaIcEEESaIS5_EE4sizeEv:
LFB4751:
	.cfi_startproc
	pushl	%ebp
	.cfi_def_cfa_offset 8
	.cfi_offset 5, -8
	movl	%esp, %ebp
	.cfi_def_cfa_register 5
	subl	$4, %esp
	movl	%ecx, -4(%ebp)
	movl	-4(%ebp), %eax
	movl	4(%eax), %eax
	movl	%eax, %edx
	movl	-4(%ebp), %eax
	movl	(%eax), %eax
	subl	%eax, %edx
	movl	%edx, %eax
	sarl	$3, %eax
	imull	$-1431655765, %eax, %eax
	leave
	.cfi_restore 5
	.cfi_def_cfa 4, 4
	ret
	.cfi_endproc
LFE4751:
	.section	.text$_ZNSaINSt7__cxx1112basic_stringIcSt11char_traitsIcESaIcEEEEC2Ev,"x"
	.linkonce discard
	.align 2
	.globl	__ZNSaINSt7__cxx1112basic_stringIcSt11char_traitsIcESaIcEEEEC2Ev
	.def	__ZNSaINSt7__cxx1112basic_stringIcSt11char_traitsIcESaIcEEEEC2Ev;	.scl	2;	.type	32;	.endef
__ZNSaINSt7__cxx1112basic_stringIcSt11char_traitsIcESaIcEEEEC2Ev:
LFB4753:
	.cfi_startproc
	pushl	%ebp
	.cfi_def_cfa_offset 8
	.cfi_offset 5, -8
	movl	%esp, %ebp
	.cfi_def_cfa_register 5
	subl	$24, %esp
	movl	%ecx, -12(%ebp)
	movl	-12(%ebp), %eax
	movl	%eax, %ecx
	call	__ZN9__gnu_cxx13new_allocatorINSt7__cxx1112basic_stringIcSt11char_traitsIcESaIcEEEEC2Ev
	nop
	leave
	.cfi_restore 5
	.cfi_def_cfa 4, 4
	ret
	.cfi_endproc
LFE4753:
	.section	.text$_ZNSaINSt7__cxx1112basic_stringIcSt11char_traitsIcESaIcEEEEC1Ev,"x"
	.linkonce discard
	.align 2
	.globl	__ZNSaINSt7__cxx1112basic_stringIcSt11char_traitsIcESaIcEEEEC1Ev
	.def	__ZNSaINSt7__cxx1112basic_stringIcSt11char_traitsIcESaIcEEEEC1Ev;	.scl	2;	.type	32;	.endef
__ZNSaINSt7__cxx1112basic_stringIcSt11char_traitsIcESaIcEEEEC1Ev:
LFB4754:
	.cfi_startproc
	pushl	%ebp
	.cfi_def_cfa_offset 8
	.cfi_offset 5, -8
	movl	%esp, %ebp
	.cfi_def_cfa_register 5
	subl	$24, %esp
	movl	%ecx, -12(%ebp)
	movl	-12(%ebp), %eax
	movl	%eax, %ecx
	call	__ZN9__gnu_cxx13new_allocatorINSt7__cxx1112basic_stringIcSt11char_traitsIcESaIcEEEEC2Ev
	nop
	leave
	.cfi_restore 5
	.cfi_def_cfa 4, 4
	ret
	.cfi_endproc
LFE4754:
	.section	.text$_ZNSaINSt7__cxx1112basic_stringIcSt11char_traitsIcESaIcEEEED2Ev,"x"
	.linkonce discard
	.align 2
	.globl	__ZNSaINSt7__cxx1112basic_stringIcSt11char_traitsIcESaIcEEEED2Ev
	.def	__ZNSaINSt7__cxx1112basic_stringIcSt11char_traitsIcESaIcEEEED2Ev;	.scl	2;	.type	32;	.endef
__ZNSaINSt7__cxx1112basic_stringIcSt11char_traitsIcESaIcEEEED2Ev:
LFB4756:
	.cfi_startproc
	pushl	%ebp
	.cfi_def_cfa_offset 8
	.cfi_offset 5, -8
	movl	%esp, %ebp
	.cfi_def_cfa_register 5
	subl	$24, %esp
	movl	%ecx, -12(%ebp)
	movl	-12(%ebp), %eax
	movl	%eax, %ecx
	call	__ZN9__gnu_cxx13new_allocatorINSt7__cxx1112basic_stringIcSt11char_traitsIcESaIcEEEED2Ev
	nop
	leave
	.cfi_restore 5
	.cfi_def_cfa 4, 4
	ret
	.cfi_endproc
LFE4756:
	.section	.text$_ZNSaINSt7__cxx1112basic_stringIcSt11char_traitsIcESaIcEEEED1Ev,"x"
	.linkonce discard
	.align 2
	.globl	__ZNSaINSt7__cxx1112basic_stringIcSt11char_traitsIcESaIcEEEED1Ev
	.def	__ZNSaINSt7__cxx1112basic_stringIcSt11char_traitsIcESaIcEEEED1Ev;	.scl	2;	.type	32;	.endef
__ZNSaINSt7__cxx1112basic_stringIcSt11char_traitsIcESaIcEEEED1Ev:
LFB4757:
	.cfi_startproc
	pushl	%ebp
	.cfi_def_cfa_offset 8
	.cfi_offset 5, -8
	movl	%esp, %ebp
	.cfi_def_cfa_register 5
	subl	$24, %esp
	movl	%ecx, -12(%ebp)
	movl	-12(%ebp), %eax
	movl	%eax, %ecx
	call	__ZN9__gnu_cxx13new_allocatorINSt7__cxx1112basic_stringIcSt11char_traitsIcESaIcEEEED2Ev
	nop
	leave
	.cfi_restore 5
	.cfi_def_cfa 4, 4
	ret
	.cfi_endproc
LFE4757:
	.section	.text$_ZNSt6vectorINSt7__cxx1112basic_stringIcSt11char_traitsIcESaIcEEESaIS5_EEC1EjRKS6_,"x"
	.linkonce discard
	.align 2
	.globl	__ZNSt6vectorINSt7__cxx1112basic_stringIcSt11char_traitsIcESaIcEEESaIS5_EEC1EjRKS6_
	.def	__ZNSt6vectorINSt7__cxx1112basic_stringIcSt11char_traitsIcESaIcEEESaIS5_EEC1EjRKS6_;	.scl	2;	.type	32;	.endef
__ZNSt6vectorINSt7__cxx1112basic_stringIcSt11char_traitsIcESaIcEEESaIS5_EEC1EjRKS6_:
LFB4760:
	.cfi_startproc
	.cfi_personality 0,___gxx_personality_v0
	.cfi_lsda 0,LLSDA4760
	pushl	%ebp
	.cfi_def_cfa_offset 8
	.cfi_offset 5, -8
	movl	%esp, %ebp
	.cfi_def_cfa_register 5
	pushl	%ebx
	subl	$36, %esp
	.cfi_offset 3, -12
	movl	%ecx, -12(%ebp)
	movl	-12(%ebp), %eax
	movl	12(%ebp), %edx
	movl	%edx, 4(%esp)
	movl	8(%ebp), %edx
	movl	%edx, (%esp)
	movl	%eax, %ecx
LEHB20:
	call	__ZNSt12_Vector_baseINSt7__cxx1112basic_stringIcSt11char_traitsIcESaIcEEESaIS5_EEC2EjRKS6_
LEHE20:
	subl	$8, %esp
	movl	-12(%ebp), %eax
	movl	8(%ebp), %edx
	movl	%edx, (%esp)
	movl	%eax, %ecx
LEHB21:
	call	__ZNSt6vectorINSt7__cxx1112basic_stringIcSt11char_traitsIcESaIcEEESaIS5_EE21_M_default_initializeEj
LEHE21:
	subl	$4, %esp
	jmp	L246
L245:
	movl	%eax, %ebx
	movl	-12(%ebp), %eax
	movl	%eax, %ecx
	call	__ZNSt12_Vector_baseINSt7__cxx1112basic_stringIcSt11char_traitsIcESaIcEEESaIS5_EED2Ev
	movl	%ebx, %eax
	movl	%eax, (%esp)
LEHB22:
	call	__Unwind_Resume
LEHE22:
L246:
	movl	-4(%ebp), %ebx
	leave
	.cfi_restore 5
	.cfi_restore 3
	.cfi_def_cfa 4, 4
	ret	$8
	.cfi_endproc
LFE4760:
	.section	.gcc_except_table,"w"
LLSDA4760:
	.byte	0xff
	.byte	0xff
	.byte	0x1
	.uleb128 LLSDACSE4760-LLSDACSB4760
LLSDACSB4760:
	.uleb128 LEHB20-LFB4760
	.uleb128 LEHE20-LEHB20
	.uleb128 0
	.uleb128 0
	.uleb128 LEHB21-LFB4760
	.uleb128 LEHE21-LEHB21
	.uleb128 L245-LFB4760
	.uleb128 0
	.uleb128 LEHB22-LFB4760
	.uleb128 LEHE22-LEHB22
	.uleb128 0
	.uleb128 0
LLSDACSE4760:
	.section	.text$_ZNSt6vectorINSt7__cxx1112basic_stringIcSt11char_traitsIcESaIcEEESaIS5_EEC1EjRKS6_,"x"
	.linkonce discard
	.section	.text$_ZNSt7__cxx1112basic_stringIcSt11char_traitsIcESaIcEEC1IPcvEET_S7_RKS3_,"x"
	.linkonce discard
	.align 2
	.globl	__ZNSt7__cxx1112basic_stringIcSt11char_traitsIcESaIcEEC1IPcvEET_S7_RKS3_
	.def	__ZNSt7__cxx1112basic_stringIcSt11char_traitsIcESaIcEEC1IPcvEET_S7_RKS3_;	.scl	2;	.type	32;	.endef
__ZNSt7__cxx1112basic_stringIcSt11char_traitsIcESaIcEEC1IPcvEET_S7_RKS3_:
LFB4767:
	.cfi_startproc
	.cfi_personality 0,___gxx_personality_v0
	.cfi_lsda 0,LLSDA4767
	pushl	%ebp
	.cfi_def_cfa_offset 8
	.cfi_offset 5, -8
	movl	%esp, %ebp
	.cfi_def_cfa_register 5
	pushl	%ebx
	subl	$36, %esp
	.cfi_offset 3, -12
	movl	%ecx, -12(%ebp)
	movl	-12(%ebp), %eax
	movl	%eax, %ecx
LEHB23:
	call	__ZNSt7__cxx1112basic_stringIcSt11char_traitsIcESaIcEE13_M_local_dataEv
	movl	%eax, %ecx
	movl	-12(%ebp), %eax
	movl	16(%ebp), %edx
	movl	%edx, 4(%esp)
	movl	%ecx, (%esp)
	movl	%eax, %ecx
	call	__ZNSt7__cxx1112basic_stringIcSt11char_traitsIcESaIcEE12_Alloc_hiderC1EPcRKS3_
LEHE23:
	subl	$8, %esp
	movl	-12(%ebp), %eax
	movl	12(%ebp), %edx
	movl	%edx, 4(%esp)
	movl	8(%ebp), %edx
	movl	%edx, (%esp)
	movl	%eax, %ecx
LEHB24:
	call	__ZNSt7__cxx1112basic_stringIcSt11char_traitsIcESaIcEE12_M_constructIPcEEvT_S7_
LEHE24:
	subl	$8, %esp
	jmp	L250
L249:
	movl	%eax, %ebx
	movl	-12(%ebp), %eax
	movl	%eax, %ecx
	call	__ZNSt7__cxx1112basic_stringIcSt11char_traitsIcESaIcEE12_Alloc_hiderD1Ev
	movl	%ebx, %eax
	movl	%eax, (%esp)
LEHB25:
	call	__Unwind_Resume
LEHE25:
L250:
	movl	-4(%ebp), %ebx
	leave
	.cfi_restore 5
	.cfi_restore 3
	.cfi_def_cfa 4, 4
	ret	$12
	.cfi_endproc
LFE4767:
	.section	.gcc_except_table,"w"
LLSDA4767:
	.byte	0xff
	.byte	0xff
	.byte	0x1
	.uleb128 LLSDACSE4767-LLSDACSB4767
LLSDACSB4767:
	.uleb128 LEHB23-LFB4767
	.uleb128 LEHE23-LEHB23
	.uleb128 0
	.uleb128 0
	.uleb128 LEHB24-LFB4767
	.uleb128 LEHE24-LEHB24
	.uleb128 L249-LFB4767
	.uleb128 0
	.uleb128 LEHB25-LFB4767
	.uleb128 LEHE25-LEHB25
	.uleb128 0
	.uleb128 0
LLSDACSE4767:
	.section	.text$_ZNSt7__cxx1112basic_stringIcSt11char_traitsIcESaIcEEC1IPcvEET_S7_RKS3_,"x"
	.linkonce discard
	.section	.text$_ZNSt12_Vector_baseIjSaIjEE12_Vector_implD1Ev,"x"
	.linkonce discard
	.align 2
	.globl	__ZNSt12_Vector_baseIjSaIjEE12_Vector_implD1Ev
	.def	__ZNSt12_Vector_baseIjSaIjEE12_Vector_implD1Ev;	.scl	2;	.type	32;	.endef
__ZNSt12_Vector_baseIjSaIjEE12_Vector_implD1Ev:
LFB4856:
	.cfi_startproc
	pushl	%ebp
	.cfi_def_cfa_offset 8
	.cfi_offset 5, -8
	movl	%esp, %ebp
	.cfi_def_cfa_register 5
	subl	$24, %esp
	movl	%ecx, -12(%ebp)
	movl	-12(%ebp), %eax
	movl	%eax, %ecx
	call	__ZNSaIjED2Ev
	nop
	leave
	.cfi_restore 5
	.cfi_def_cfa 4, 4
	ret
	.cfi_endproc
LFE4856:
	.section	.text$_ZNSt12_Vector_baseIjSaIjEEC2Ev,"x"
	.linkonce discard
	.align 2
	.globl	__ZNSt12_Vector_baseIjSaIjEEC2Ev
	.def	__ZNSt12_Vector_baseIjSaIjEEC2Ev;	.scl	2;	.type	32;	.endef
__ZNSt12_Vector_baseIjSaIjEEC2Ev:
LFB4857:
	.cfi_startproc
	pushl	%ebp
	.cfi_def_cfa_offset 8
	.cfi_offset 5, -8
	movl	%esp, %ebp
	.cfi_def_cfa_register 5
	subl	$24, %esp
	movl	%ecx, -12(%ebp)
	movl	-12(%ebp), %eax
	movl	%eax, %ecx
	call	__ZNSt12_Vector_baseIjSaIjEE12_Vector_implC1Ev
	nop
	leave
	.cfi_restore 5
	.cfi_def_cfa 4, 4
	ret
	.cfi_endproc
LFE4857:
	.section	.text$_ZNSt12_Vector_baseIjSaIjEED2Ev,"x"
	.linkonce discard
	.align 2
	.globl	__ZNSt12_Vector_baseIjSaIjEED2Ev
	.def	__ZNSt12_Vector_baseIjSaIjEED2Ev;	.scl	2;	.type	32;	.endef
__ZNSt12_Vector_baseIjSaIjEED2Ev:
LFB4860:
	.cfi_startproc
	.cfi_personality 0,___gxx_personality_v0
	.cfi_lsda 0,LLSDA4860
	pushl	%ebp
	.cfi_def_cfa_offset 8
	.cfi_offset 5, -8
	movl	%esp, %ebp
	.cfi_def_cfa_register 5
	subl	$40, %esp
	movl	%ecx, -12(%ebp)
	movl	-12(%ebp), %eax
	movl	8(%eax), %eax
	movl	%eax, %edx
	movl	-12(%ebp), %eax
	movl	(%eax), %eax
	subl	%eax, %edx
	movl	%edx, %eax
	sarl	$2, %eax
	movl	%eax, %ecx
	movl	-12(%ebp), %eax
	movl	(%eax), %edx
	movl	-12(%ebp), %eax
	movl	%ecx, 4(%esp)
	movl	%edx, (%esp)
	movl	%eax, %ecx
	call	__ZNSt12_Vector_baseIjSaIjEE13_M_deallocateEPjj
	subl	$8, %esp
	movl	-12(%ebp), %eax
	movl	%eax, %ecx
	call	__ZNSt12_Vector_baseIjSaIjEE12_Vector_implD1Ev
	nop
	leave
	.cfi_restore 5
	.cfi_def_cfa 4, 4
	ret
	.cfi_endproc
LFE4860:
	.section	.gcc_except_table,"w"
LLSDA4860:
	.byte	0xff
	.byte	0xff
	.byte	0x1
	.uleb128 LLSDACSE4860-LLSDACSB4860
LLSDACSB4860:
LLSDACSE4860:
	.section	.text$_ZNSt12_Vector_baseIjSaIjEED2Ev,"x"
	.linkonce discard
	.section	.text$_ZNSt12_Vector_baseIjSaIjEE19_M_get_Tp_allocatorEv,"x"
	.linkonce discard
	.align 2
	.globl	__ZNSt12_Vector_baseIjSaIjEE19_M_get_Tp_allocatorEv
	.def	__ZNSt12_Vector_baseIjSaIjEE19_M_get_Tp_allocatorEv;	.scl	2;	.type	32;	.endef
__ZNSt12_Vector_baseIjSaIjEE19_M_get_Tp_allocatorEv:
LFB4862:
	.cfi_startproc
	pushl	%ebp
	.cfi_def_cfa_offset 8
	.cfi_offset 5, -8
	movl	%esp, %ebp
	.cfi_def_cfa_register 5
	subl	$4, %esp
	movl	%ecx, -4(%ebp)
	movl	-4(%ebp), %eax
	leave
	.cfi_restore 5
	.cfi_def_cfa 4, 4
	ret
	.cfi_endproc
LFE4862:
	.section	.text$_ZSt8_DestroyIPjjEvT_S1_RSaIT0_E,"x"
	.linkonce discard
	.globl	__ZSt8_DestroyIPjjEvT_S1_RSaIT0_E
	.def	__ZSt8_DestroyIPjjEvT_S1_RSaIT0_E;	.scl	2;	.type	32;	.endef
__ZSt8_DestroyIPjjEvT_S1_RSaIT0_E:
LFB4863:
	.cfi_startproc
	pushl	%ebp
	.cfi_def_cfa_offset 8
	.cfi_offset 5, -8
	movl	%esp, %ebp
	.cfi_def_cfa_register 5
	subl	$24, %esp
	movl	12(%ebp), %eax
	movl	%eax, 4(%esp)
	movl	8(%ebp), %eax
	movl	%eax, (%esp)
	call	__ZSt8_DestroyIPjEvT_S1_
	nop
	leave
	.cfi_restore 5
	.cfi_def_cfa 4, 4
	ret
	.cfi_endproc
LFE4863:
	.section	.text$_ZN9__gnu_cxx17__normal_iteratorIPKNSt7__cxx1112basic_stringIcSt11char_traitsIcESaIcEEESt6vectorIS6_SaIS6_EEEC1ERKS8_,"x"
	.linkonce discard
	.align 2
	.globl	__ZN9__gnu_cxx17__normal_iteratorIPKNSt7__cxx1112basic_stringIcSt11char_traitsIcESaIcEEESt6vectorIS6_SaIS6_EEEC1ERKS8_
	.def	__ZN9__gnu_cxx17__normal_iteratorIPKNSt7__cxx1112basic_stringIcSt11char_traitsIcESaIcEEESt6vectorIS6_SaIS6_EEEC1ERKS8_;	.scl	2;	.type	32;	.endef
__ZN9__gnu_cxx17__normal_iteratorIPKNSt7__cxx1112basic_stringIcSt11char_traitsIcESaIcEEESt6vectorIS6_SaIS6_EEEC1ERKS8_:
LFB4866:
	.cfi_startproc
	pushl	%ebp
	.cfi_def_cfa_offset 8
	.cfi_offset 5, -8
	movl	%esp, %ebp
	.cfi_def_cfa_register 5
	subl	$4, %esp
	movl	%ecx, -4(%ebp)
	movl	8(%ebp), %eax
	movl	(%eax), %edx
	movl	-4(%ebp), %eax
	movl	%edx, (%eax)
	nop
	leave
	.cfi_restore 5
	.cfi_def_cfa 4, 4
	ret	$4
	.cfi_endproc
LFE4866:
	.section	.text$_ZN9__gnu_cxx17__normal_iteratorIPNSt7__cxx1112basic_stringIcSt11char_traitsIcESaIcEEESt6vectorIS6_SaIS6_EEEC1ERKS7_,"x"
	.linkonce discard
	.align 2
	.globl	__ZN9__gnu_cxx17__normal_iteratorIPNSt7__cxx1112basic_stringIcSt11char_traitsIcESaIcEEESt6vectorIS6_SaIS6_EEEC1ERKS7_
	.def	__ZN9__gnu_cxx17__normal_iteratorIPNSt7__cxx1112basic_stringIcSt11char_traitsIcESaIcEEESt6vectorIS6_SaIS6_EEEC1ERKS7_;	.scl	2;	.type	32;	.endef
__ZN9__gnu_cxx17__normal_iteratorIPNSt7__cxx1112basic_stringIcSt11char_traitsIcESaIcEEESt6vectorIS6_SaIS6_EEEC1ERKS7_:
LFB4869:
	.cfi_startproc
	pushl	%ebp
	.cfi_def_cfa_offset 8
	.cfi_offset 5, -8
	movl	%esp, %ebp
	.cfi_def_cfa_register 5
	subl	$4, %esp
	movl	%ecx, -4(%ebp)
	movl	8(%ebp), %eax
	movl	(%eax), %edx
	movl	-4(%ebp), %eax
	movl	%edx, (%eax)
	nop
	leave
	.cfi_restore 5
	.cfi_def_cfa 4, 4
	ret	$4
	.cfi_endproc
LFE4869:
	.section	.text$_ZN9__gnu_cxx5__ops17__iter_equals_valIKcEENS0_16_Iter_equals_valIT_EERS4_,"x"
	.linkonce discard
	.globl	__ZN9__gnu_cxx5__ops17__iter_equals_valIKcEENS0_16_Iter_equals_valIT_EERS4_
	.def	__ZN9__gnu_cxx5__ops17__iter_equals_valIKcEENS0_16_Iter_equals_valIT_EERS4_;	.scl	2;	.type	32;	.endef
__ZN9__gnu_cxx5__ops17__iter_equals_valIKcEENS0_16_Iter_equals_valIT_EERS4_:
LFB4873:
	.cfi_startproc
	pushl	%ebp
	.cfi_def_cfa_offset 8
	.cfi_offset 5, -8
	movl	%esp, %ebp
	.cfi_def_cfa_register 5
	subl	$40, %esp
	leal	-12(%ebp), %eax
	movl	8(%ebp), %edx
	movl	%edx, (%esp)
	movl	%eax, %ecx
	call	__ZN9__gnu_cxx5__ops16_Iter_equals_valIKcEC1ERS2_
	subl	$4, %esp
	movl	-12(%ebp), %eax
	leave
	.cfi_restore 5
	.cfi_def_cfa 4, 4
	ret
	.cfi_endproc
LFE4873:
	.section	.text$_ZSt10__count_ifIN9__gnu_cxx17__normal_iteratorIPKcNSt7__cxx1112basic_stringIcSt11char_traitsIcESaIcEEEEENS0_5__ops16_Iter_equals_valIS2_EEENSt15iterator_traitsIT_E15difference_typeESF_SF_T0_,"x"
	.linkonce discard
	.globl	__ZSt10__count_ifIN9__gnu_cxx17__normal_iteratorIPKcNSt7__cxx1112basic_stringIcSt11char_traitsIcESaIcEEEEENS0_5__ops16_Iter_equals_valIS2_EEENSt15iterator_traitsIT_E15difference_typeESF_SF_T0_
	.def	__ZSt10__count_ifIN9__gnu_cxx17__normal_iteratorIPKcNSt7__cxx1112basic_stringIcSt11char_traitsIcESaIcEEEEENS0_5__ops16_Iter_equals_valIS2_EEENSt15iterator_traitsIT_E15difference_typeESF_SF_T0_;	.scl	2;	.type	32;	.endef
__ZSt10__count_ifIN9__gnu_cxx17__normal_iteratorIPKcNSt7__cxx1112basic_stringIcSt11char_traitsIcESaIcEEEEENS0_5__ops16_Iter_equals_valIS2_EEENSt15iterator_traitsIT_E15difference_typeESF_SF_T0_:
LFB4874:
	.cfi_startproc
	pushl	%ebp
	.cfi_def_cfa_offset 8
	.cfi_offset 5, -8
	movl	%esp, %ebp
	.cfi_def_cfa_register 5
	subl	$40, %esp
	movl	$0, -12(%ebp)
L264:
	leal	12(%ebp), %eax
	movl	%eax, 4(%esp)
	leal	8(%ebp), %eax
	movl	%eax, (%esp)
	call	__ZN9__gnu_cxxneIPKcNSt7__cxx1112basic_stringIcSt11char_traitsIcESaIcEEEEEbRKNS_17__normal_iteratorIT_T0_EESE_
	testb	%al, %al
	je	L262
	leal	16(%ebp), %eax
	movl	8(%ebp), %edx
	movl	%edx, (%esp)
	movl	%eax, %ecx
	call	__ZN9__gnu_cxx5__ops16_Iter_equals_valIKcEclINS_17__normal_iteratorIPS2_NSt7__cxx1112basic_stringIcSt11char_traitsIcESaIcEEEEEEEbT_
	subl	$4, %esp
	testb	%al, %al
	je	L263
	addl	$1, -12(%ebp)
L263:
	leal	8(%ebp), %ecx
	call	__ZN9__gnu_cxx17__normal_iteratorIPKcNSt7__cxx1112basic_stringIcSt11char_traitsIcESaIcEEEEppEv
	jmp	L264
L262:
	movl	-12(%ebp), %eax
	leave
	.cfi_restore 5
	.cfi_def_cfa 4, 4
	ret
	.cfi_endproc
LFE4874:
	.section	.text$_ZN9__gnu_cxx14__alloc_traitsISaIcEE17_S_select_on_copyERKS1_,"x"
	.linkonce discard
	.globl	__ZN9__gnu_cxx14__alloc_traitsISaIcEE17_S_select_on_copyERKS1_
	.def	__ZN9__gnu_cxx14__alloc_traitsISaIcEE17_S_select_on_copyERKS1_;	.scl	2;	.type	32;	.endef
__ZN9__gnu_cxx14__alloc_traitsISaIcEE17_S_select_on_copyERKS1_:
LFB4875:
	.cfi_startproc
	pushl	%ebp
	.cfi_def_cfa_offset 8
	.cfi_offset 5, -8
	movl	%esp, %ebp
	.cfi_def_cfa_register 5
	subl	$24, %esp
	movl	8(%ebp), %eax
	movl	12(%ebp), %edx
	movl	%edx, 4(%esp)
	movl	%eax, (%esp)
	call	__ZNSt16allocator_traitsISaIcEE37select_on_container_copy_constructionERKS0_
	movl	8(%ebp), %eax
	leave
	.cfi_restore 5
	.cfi_def_cfa 4, 4
	ret
	.cfi_endproc
LFE4875:
	.section	.text$_ZNSt7__cxx1112basic_stringIcSt11char_traitsIcESaIcEE12_M_constructIPcEEvT_S7_,"x"
	.linkonce discard
	.align 2
	.globl	__ZNSt7__cxx1112basic_stringIcSt11char_traitsIcESaIcEE12_M_constructIPcEEvT_S7_
	.def	__ZNSt7__cxx1112basic_stringIcSt11char_traitsIcESaIcEE12_M_constructIPcEEvT_S7_;	.scl	2;	.type	32;	.endef
__ZNSt7__cxx1112basic_stringIcSt11char_traitsIcESaIcEE12_M_constructIPcEEvT_S7_:
LFB4877:
	.cfi_startproc
	pushl	%ebp
	.cfi_def_cfa_offset 8
	.cfi_offset 5, -8
	movl	%esp, %ebp
	.cfi_def_cfa_register 5
	subl	$56, %esp
	movl	%ecx, -28(%ebp)
	movl	-28(%ebp), %eax
	movb	%dl, 8(%esp)
	movl	12(%ebp), %edx
	movl	%edx, 4(%esp)
	movl	8(%ebp), %edx
	movl	%edx, (%esp)
	movl	%eax, %ecx
	call	__ZNSt7__cxx1112basic_stringIcSt11char_traitsIcESaIcEE16_M_construct_auxIPcEEvT_S7_St12__false_type
	subl	$12, %esp
	nop
	leave
	.cfi_restore 5
	.cfi_def_cfa 4, 4
	ret	$8
	.cfi_endproc
LFE4877:
	.section	.text$_ZSt4moveIRPKcEONSt16remove_referenceIT_E4typeEOS4_,"x"
	.linkonce discard
	.globl	__ZSt4moveIRPKcEONSt16remove_referenceIT_E4typeEOS4_
	.def	__ZSt4moveIRPKcEONSt16remove_referenceIT_E4typeEOS4_;	.scl	2;	.type	32;	.endef
__ZSt4moveIRPKcEONSt16remove_referenceIT_E4typeEOS4_:
LFB4879:
	.cfi_startproc
	pushl	%ebp
	.cfi_def_cfa_offset 8
	.cfi_offset 5, -8
	movl	%esp, %ebp
	.cfi_def_cfa_register 5
	movl	8(%ebp), %eax
	popl	%ebp
	.cfi_restore 5
	.cfi_def_cfa 4, 4
	ret
	.cfi_endproc
LFE4879:
	.section	.text$_ZNSt7__cxx1111basic_regexIcNS_12regex_traitsIcEEEC1IPKcEET_S7_NSt15regex_constants18syntax_option_typeE,"x"
	.linkonce discard
	.align 2
	.globl	__ZNSt7__cxx1111basic_regexIcNS_12regex_traitsIcEEEC1IPKcEET_S7_NSt15regex_constants18syntax_option_typeE
	.def	__ZNSt7__cxx1111basic_regexIcNS_12regex_traitsIcEEEC1IPKcEET_S7_NSt15regex_constants18syntax_option_typeE;	.scl	2;	.type	32;	.endef
__ZNSt7__cxx1111basic_regexIcNS_12regex_traitsIcEEEC1IPKcEET_S7_NSt15regex_constants18syntax_option_typeE:
LFB4881:
	.cfi_startproc
	.cfi_personality 0,___gxx_personality_v0
	.cfi_lsda 0,LLSDA4881
	pushl	%ebp
	.cfi_def_cfa_offset 8
	.cfi_offset 5, -8
	movl	%esp, %ebp
	.cfi_def_cfa_register 5
	pushl	%ebx
	subl	$52, %esp
	.cfi_offset 3, -12
	movl	%ecx, -28(%ebp)
	leal	-12(%ebp), %eax
	movl	%eax, %ecx
	call	__ZNSt6localeC1Ev
	leal	12(%ebp), %eax
	movl	%eax, (%esp)
	call	__ZSt4moveIRPKcEONSt16remove_referenceIT_E4typeEOS4_
	movl	(%eax), %ebx
	leal	8(%ebp), %eax
	movl	%eax, (%esp)
	call	__ZSt4moveIRPKcEONSt16remove_referenceIT_E4typeEOS4_
	movl	(%eax), %edx
	movl	-28(%ebp), %eax
	movl	16(%ebp), %ecx
	movl	%ecx, 12(%esp)
	leal	-12(%ebp), %ecx
	movl	%ecx, 8(%esp)
	movl	%ebx, 4(%esp)
	movl	%edx, (%esp)
	movl	%eax, %ecx
LEHB26:
	call	__ZNSt7__cxx1111basic_regexIcNS_12regex_traitsIcEEEC1IPKcEET_S7_St6localeNSt15regex_constants18syntax_option_typeE
LEHE26:
	subl	$16, %esp
	leal	-12(%ebp), %eax
	movl	%eax, %ecx
	call	__ZNSt6localeD1Ev
	jmp	L274
L273:
	movl	%eax, %ebx
	leal	-12(%ebp), %eax
	movl	%eax, %ecx
	call	__ZNSt6localeD1Ev
	movl	%ebx, %eax
	movl	%eax, (%esp)
LEHB27:
	call	__Unwind_Resume
LEHE27:
L274:
	movl	-4(%ebp), %ebx
	leave
	.cfi_restore 5
	.cfi_restore 3
	.cfi_def_cfa 4, 4
	ret	$12
	.cfi_endproc
LFE4881:
	.section	.gcc_except_table,"w"
LLSDA4881:
	.byte	0xff
	.byte	0xff
	.byte	0x1
	.uleb128 LLSDACSE4881-LLSDACSB4881
LLSDACSB4881:
	.uleb128 LEHB26-LFB4881
	.uleb128 LEHE26-LEHB26
	.uleb128 L273-LFB4881
	.uleb128 0
	.uleb128 LEHB27-LFB4881
	.uleb128 LEHE27-LEHB27
	.uleb128 0
	.uleb128 0
LLSDACSE4881:
	.section	.text$_ZNSt7__cxx1111basic_regexIcNS_12regex_traitsIcEEEC1IPKcEET_S7_NSt15regex_constants18syntax_option_typeE,"x"
	.linkonce discard
	.section	.text$_ZNSt14__shared_countILN9__gnu_cxx12_Lock_policyE2EED1Ev,"x"
	.linkonce discard
	.align 2
	.globl	__ZNSt14__shared_countILN9__gnu_cxx12_Lock_policyE2EED1Ev
	.def	__ZNSt14__shared_countILN9__gnu_cxx12_Lock_policyE2EED1Ev;	.scl	2;	.type	32;	.endef
__ZNSt14__shared_countILN9__gnu_cxx12_Lock_policyE2EED1Ev:
LFB4884:
	.cfi_startproc
	pushl	%ebp
	.cfi_def_cfa_offset 8
	.cfi_offset 5, -8
	movl	%esp, %ebp
	.cfi_def_cfa_register 5
	subl	$24, %esp
	movl	%ecx, -12(%ebp)
	movl	-12(%ebp), %eax
	movl	(%eax), %eax
	testl	%eax, %eax
	je	L277
	movl	-12(%ebp), %eax
	movl	(%eax), %eax
	movl	%eax, %ecx
	call	__ZNSt16_Sp_counted_baseILN9__gnu_cxx12_Lock_policyE2EE10_M_releaseEv
L277:
	nop
	leave
	.cfi_restore 5
	.cfi_def_cfa 4, 4
	ret
	.cfi_endproc
LFE4884:
	.section	.text$_ZSt13back_inserterINSt7__cxx1112basic_stringIcSt11char_traitsIcESaIcEEEESt20back_insert_iteratorIT_ERS7_,"x"
	.linkonce discard
	.globl	__ZSt13back_inserterINSt7__cxx1112basic_stringIcSt11char_traitsIcESaIcEEEESt20back_insert_iteratorIT_ERS7_
	.def	__ZSt13back_inserterINSt7__cxx1112basic_stringIcSt11char_traitsIcESaIcEEEESt20back_insert_iteratorIT_ERS7_;	.scl	2;	.type	32;	.endef
__ZSt13back_inserterINSt7__cxx1112basic_stringIcSt11char_traitsIcESaIcEEEESt20back_insert_iteratorIT_ERS7_:
LFB4885:
	.cfi_startproc
	pushl	%ebp
	.cfi_def_cfa_offset 8
	.cfi_offset 5, -8
	movl	%esp, %ebp
	.cfi_def_cfa_register 5
	subl	$40, %esp
	leal	-12(%ebp), %eax
	movl	8(%ebp), %edx
	movl	%edx, (%esp)
	movl	%eax, %ecx
	call	__ZNSt20back_insert_iteratorINSt7__cxx1112basic_stringIcSt11char_traitsIcESaIcEEEEC1ERS5_
	subl	$4, %esp
	movl	-12(%ebp), %eax
	leave
	.cfi_restore 5
	.cfi_def_cfa 4, 4
	ret
	.cfi_endproc
LFE4885:
	.section	.text$_ZSt13regex_replaceISt20back_insert_iteratorINSt7__cxx1112basic_stringIcSt11char_traitsIcESaIcEEEEN9__gnu_cxx17__normal_iteratorIPKcS6_EENS1_12regex_traitsIcEEcS4_S5_ET_SF_T0_SG_RKNS1_11basic_regexIT2_T1_EERKNS2_ISI_T3_T4_EENSt15regex_constants15match_flag_typeE,"x"
	.linkonce discard
	.globl	__ZSt13regex_replaceISt20back_insert_iteratorINSt7__cxx1112basic_stringIcSt11char_traitsIcESaIcEEEEN9__gnu_cxx17__normal_iteratorIPKcS6_EENS1_12regex_traitsIcEEcS4_S5_ET_SF_T0_SG_RKNS1_11basic_regexIT2_T1_EERKNS2_ISI_T3_T4_EENSt15regex_constants15match_flag_typeE
	.def	__ZSt13regex_replaceISt20back_insert_iteratorINSt7__cxx1112basic_stringIcSt11char_traitsIcESaIcEEEEN9__gnu_cxx17__normal_iteratorIPKcS6_EENS1_12regex_traitsIcEEcS4_S5_ET_SF_T0_SG_RKNS1_11basic_regexIT2_T1_EERKNS2_ISI_T3_T4_EENSt15regex_constants15match_flag_typeE;	.scl	2;	.type	32;	.endef
__ZSt13regex_replaceISt20back_insert_iteratorINSt7__cxx1112basic_stringIcSt11char_traitsIcESaIcEEEEN9__gnu_cxx17__normal_iteratorIPKcS6_EENS1_12regex_traitsIcEEcS4_S5_ET_SF_T0_SG_RKNS1_11basic_regexIT2_T1_EERKNS2_ISI_T3_T4_EENSt15regex_constants15match_flag_typeE:
LFB4886:
	.cfi_startproc
	pushl	%ebp
	.cfi_def_cfa_offset 8
	.cfi_offset 5, -8
	movl	%esp, %ebp
	.cfi_def_cfa_register 5
	subl	$40, %esp
	movl	24(%ebp), %eax
	movl	%eax, %ecx
	call	__ZNKSt7__cxx1112basic_stringIcSt11char_traitsIcESaIcEE5c_strEv
	movl	%eax, %edx
	movl	28(%ebp), %eax
	movl	%eax, 20(%esp)
	movl	%edx, 16(%esp)
	movl	20(%ebp), %eax
	movl	%eax, 12(%esp)
	movl	16(%ebp), %eax
	movl	%eax, 8(%esp)
	movl	12(%ebp), %eax
	movl	%eax, 4(%esp)
	movl	8(%ebp), %eax
	movl	%eax, (%esp)
	call	__ZSt13regex_replaceISt20back_insert_iteratorINSt7__cxx1112basic_stringIcSt11char_traitsIcESaIcEEEEN9__gnu_cxx17__normal_iteratorIPKcS6_EENS1_12regex_traitsIcEEcET_SF_T0_SG_RKNS1_11basic_regexIT2_T1_EEPKSI_NSt15regex_constants15match_flag_typeE
	leave
	.cfi_restore 5
	.cfi_def_cfa 4, 4
	ret
	.cfi_endproc
LFE4886:
	.section	.text$_ZSt9__find_ifIN9__gnu_cxx17__normal_iteratorIPcNSt7__cxx1112basic_stringIcSt11char_traitsIcESaIcEEEEENS0_5__ops16_Iter_equals_valIKcEEET_SE_SE_T0_,"x"
	.linkonce discard
	.globl	__ZSt9__find_ifIN9__gnu_cxx17__normal_iteratorIPcNSt7__cxx1112basic_stringIcSt11char_traitsIcESaIcEEEEENS0_5__ops16_Iter_equals_valIKcEEET_SE_SE_T0_
	.def	__ZSt9__find_ifIN9__gnu_cxx17__normal_iteratorIPcNSt7__cxx1112basic_stringIcSt11char_traitsIcESaIcEEEEENS0_5__ops16_Iter_equals_valIKcEEET_SE_SE_T0_;	.scl	2;	.type	32;	.endef
__ZSt9__find_ifIN9__gnu_cxx17__normal_iteratorIPcNSt7__cxx1112basic_stringIcSt11char_traitsIcESaIcEEEEENS0_5__ops16_Iter_equals_valIKcEEET_SE_SE_T0_:
LFB4890:
	.cfi_startproc
	pushl	%ebp
	.cfi_def_cfa_offset 8
	.cfi_offset 5, -8
	movl	%esp, %ebp
	.cfi_def_cfa_register 5
	pushl	%ebx
	subl	$36, %esp
	.cfi_offset 3, -12
	leal	8(%ebp), %eax
	movl	%eax, (%esp)
	call	__ZSt19__iterator_categoryIN9__gnu_cxx17__normal_iteratorIPcNSt7__cxx1112basic_stringIcSt11char_traitsIcESaIcEEEEEENSt15iterator_traitsIT_E17iterator_categoryERKSB_
	movb	%bl, 12(%esp)
	movl	16(%ebp), %eax
	movl	%eax, 8(%esp)
	movl	12(%ebp), %eax
	movl	%eax, 4(%esp)
	movl	8(%ebp), %eax
	movl	%eax, (%esp)
	call	__ZSt9__find_ifIN9__gnu_cxx17__normal_iteratorIPcNSt7__cxx1112basic_stringIcSt11char_traitsIcESaIcEEEEENS0_5__ops16_Iter_equals_valIKcEEET_SE_SE_T0_St26random_access_iterator_tag
	addl	$36, %esp
	popl	%ebx
	.cfi_restore 3
	popl	%ebp
	.cfi_restore 5
	.cfi_def_cfa 4, 4
	ret
	.cfi_endproc
LFE4890:
	.section	.text$_ZNK9__gnu_cxx17__normal_iteratorIPcNSt7__cxx1112basic_stringIcSt11char_traitsIcESaIcEEEE4baseEv,"x"
	.linkonce discard
	.align 2
	.globl	__ZNK9__gnu_cxx17__normal_iteratorIPcNSt7__cxx1112basic_stringIcSt11char_traitsIcESaIcEEEE4baseEv
	.def	__ZNK9__gnu_cxx17__normal_iteratorIPcNSt7__cxx1112basic_stringIcSt11char_traitsIcESaIcEEEE4baseEv;	.scl	2;	.type	32;	.endef
__ZNK9__gnu_cxx17__normal_iteratorIPcNSt7__cxx1112basic_stringIcSt11char_traitsIcESaIcEEEE4baseEv:
LFB4891:
	.cfi_startproc
	pushl	%ebp
	.cfi_def_cfa_offset 8
	.cfi_offset 5, -8
	movl	%esp, %ebp
	.cfi_def_cfa_register 5
	subl	$4, %esp
	movl	%ecx, -4(%ebp)
	movl	-4(%ebp), %eax
	leave
	.cfi_restore 5
	.cfi_def_cfa 4, 4
	ret
	.cfi_endproc
LFE4891:
	.section	.text$_ZN9__gnu_cxxneIPKNSt7__cxx1112basic_stringIcSt11char_traitsIcESaIcEEESt6vectorIS6_SaIS6_EEEEbRKNS_17__normal_iteratorIT_T0_EESH_,"x"
	.linkonce discard
	.globl	__ZN9__gnu_cxxneIPKNSt7__cxx1112basic_stringIcSt11char_traitsIcESaIcEEESt6vectorIS6_SaIS6_EEEEbRKNS_17__normal_iteratorIT_T0_EESH_
	.def	__ZN9__gnu_cxxneIPKNSt7__cxx1112basic_stringIcSt11char_traitsIcESaIcEEESt6vectorIS6_SaIS6_EEEEbRKNS_17__normal_iteratorIT_T0_EESH_;	.scl	2;	.type	32;	.endef
__ZN9__gnu_cxxneIPKNSt7__cxx1112basic_stringIcSt11char_traitsIcESaIcEEESt6vectorIS6_SaIS6_EEEEbRKNS_17__normal_iteratorIT_T0_EESH_:
LFB4893:
	.cfi_startproc
	pushl	%ebp
	.cfi_def_cfa_offset 8
	.cfi_offset 5, -8
	movl	%esp, %ebp
	.cfi_def_cfa_register 5
	pushl	%ebx
	subl	$4, %esp
	.cfi_offset 3, -12
	movl	8(%ebp), %ecx
	call	__ZNK9__gnu_cxx17__normal_iteratorIPKNSt7__cxx1112basic_stringIcSt11char_traitsIcESaIcEEESt6vectorIS6_SaIS6_EEE4baseEv
	movl	(%eax), %ebx
	movl	12(%ebp), %eax
	movl	%eax, %ecx
	call	__ZNK9__gnu_cxx17__normal_iteratorIPKNSt7__cxx1112basic_stringIcSt11char_traitsIcESaIcEEESt6vectorIS6_SaIS6_EEE4baseEv
	movl	(%eax), %eax
	cmpl	%eax, %ebx
	setne	%al
	addl	$4, %esp
	popl	%ebx
	.cfi_restore 3
	popl	%ebp
	.cfi_restore 5
	.cfi_def_cfa 4, 4
	ret
	.cfi_endproc
LFE4893:
	.section	.text$_ZN9__gnu_cxx17__normal_iteratorIPKNSt7__cxx1112basic_stringIcSt11char_traitsIcESaIcEEESt6vectorIS6_SaIS6_EEEppEv,"x"
	.linkonce discard
	.align 2
	.globl	__ZN9__gnu_cxx17__normal_iteratorIPKNSt7__cxx1112basic_stringIcSt11char_traitsIcESaIcEEESt6vectorIS6_SaIS6_EEEppEv
	.def	__ZN9__gnu_cxx17__normal_iteratorIPKNSt7__cxx1112basic_stringIcSt11char_traitsIcESaIcEEESt6vectorIS6_SaIS6_EEEppEv;	.scl	2;	.type	32;	.endef
__ZN9__gnu_cxx17__normal_iteratorIPKNSt7__cxx1112basic_stringIcSt11char_traitsIcESaIcEEESt6vectorIS6_SaIS6_EEEppEv:
LFB4894:
	.cfi_startproc
	pushl	%ebp
	.cfi_def_cfa_offset 8
	.cfi_offset 5, -8
	movl	%esp, %ebp
	.cfi_def_cfa_register 5
	subl	$4, %esp
	movl	%ecx, -4(%ebp)
	movl	-4(%ebp), %eax
	movl	(%eax), %eax
	leal	24(%eax), %edx
	movl	-4(%ebp), %eax
	movl	%edx, (%eax)
	movl	-4(%ebp), %eax
	leave
	.cfi_restore 5
	.cfi_def_cfa 4, 4
	ret
	.cfi_endproc
LFE4894:
	.section	.text$_ZNK9__gnu_cxx17__normal_iteratorIPKNSt7__cxx1112basic_stringIcSt11char_traitsIcESaIcEEESt6vectorIS6_SaIS6_EEEdeEv,"x"
	.linkonce discard
	.align 2
	.globl	__ZNK9__gnu_cxx17__normal_iteratorIPKNSt7__cxx1112basic_stringIcSt11char_traitsIcESaIcEEESt6vectorIS6_SaIS6_EEEdeEv
	.def	__ZNK9__gnu_cxx17__normal_iteratorIPKNSt7__cxx1112basic_stringIcSt11char_traitsIcESaIcEEESt6vectorIS6_SaIS6_EEEdeEv;	.scl	2;	.type	32;	.endef
__ZNK9__gnu_cxx17__normal_iteratorIPKNSt7__cxx1112basic_stringIcSt11char_traitsIcESaIcEEESt6vectorIS6_SaIS6_EEEdeEv:
LFB4895:
	.cfi_startproc
	pushl	%ebp
	.cfi_def_cfa_offset 8
	.cfi_offset 5, -8
	movl	%esp, %ebp
	.cfi_def_cfa_register 5
	subl	$4, %esp
	movl	%ecx, -4(%ebp)
	movl	-4(%ebp), %eax
	movl	(%eax), %eax
	leave
	.cfi_restore 5
	.cfi_def_cfa 4, 4
	ret
	.cfi_endproc
LFE4895:
	.section	.text$_ZNSt12_Vector_baseINSt7__cxx1112basic_stringIcSt11char_traitsIcESaIcEEESaIS5_EE12_Vector_implD1Ev,"x"
	.linkonce discard
	.align 2
	.globl	__ZNSt12_Vector_baseINSt7__cxx1112basic_stringIcSt11char_traitsIcESaIcEEESaIS5_EE12_Vector_implD1Ev
	.def	__ZNSt12_Vector_baseINSt7__cxx1112basic_stringIcSt11char_traitsIcESaIcEEESaIS5_EE12_Vector_implD1Ev;	.scl	2;	.type	32;	.endef
__ZNSt12_Vector_baseINSt7__cxx1112basic_stringIcSt11char_traitsIcESaIcEEESaIS5_EE12_Vector_implD1Ev:
LFB4900:
	.cfi_startproc
	pushl	%ebp
	.cfi_def_cfa_offset 8
	.cfi_offset 5, -8
	movl	%esp, %ebp
	.cfi_def_cfa_register 5
	subl	$24, %esp
	movl	%ecx, -12(%ebp)
	movl	-12(%ebp), %eax
	movl	%eax, %ecx
	call	__ZNSaINSt7__cxx1112basic_stringIcSt11char_traitsIcESaIcEEEED2Ev
	nop
	leave
	.cfi_restore 5
	.cfi_def_cfa 4, 4
	ret
	.cfi_endproc
LFE4900:
	.section	.text$_ZNSt12_Vector_baseINSt7__cxx1112basic_stringIcSt11char_traitsIcESaIcEEESaIS5_EEC2Ev,"x"
	.linkonce discard
	.align 2
	.globl	__ZNSt12_Vector_baseINSt7__cxx1112basic_stringIcSt11char_traitsIcESaIcEEESaIS5_EEC2Ev
	.def	__ZNSt12_Vector_baseINSt7__cxx1112basic_stringIcSt11char_traitsIcESaIcEEESaIS5_EEC2Ev;	.scl	2;	.type	32;	.endef
__ZNSt12_Vector_baseINSt7__cxx1112basic_stringIcSt11char_traitsIcESaIcEEESaIS5_EEC2Ev:
LFB4901:
	.cfi_startproc
	pushl	%ebp
	.cfi_def_cfa_offset 8
	.cfi_offset 5, -8
	movl	%esp, %ebp
	.cfi_def_cfa_register 5
	subl	$24, %esp
	movl	%ecx, -12(%ebp)
	movl	-12(%ebp), %eax
	movl	%eax, %ecx
	call	__ZNSt12_Vector_baseINSt7__cxx1112basic_stringIcSt11char_traitsIcESaIcEEESaIS5_EE12_Vector_implC1Ev
	nop
	leave
	.cfi_restore 5
	.cfi_def_cfa 4, 4
	ret
	.cfi_endproc
LFE4901:
	.section	.text$_ZNSt12_Vector_baseINSt7__cxx1112basic_stringIcSt11char_traitsIcESaIcEEESaIS5_EED2Ev,"x"
	.linkonce discard
	.align 2
	.globl	__ZNSt12_Vector_baseINSt7__cxx1112basic_stringIcSt11char_traitsIcESaIcEEESaIS5_EED2Ev
	.def	__ZNSt12_Vector_baseINSt7__cxx1112basic_stringIcSt11char_traitsIcESaIcEEESaIS5_EED2Ev;	.scl	2;	.type	32;	.endef
__ZNSt12_Vector_baseINSt7__cxx1112basic_stringIcSt11char_traitsIcESaIcEEESaIS5_EED2Ev:
LFB4904:
	.cfi_startproc
	.cfi_personality 0,___gxx_personality_v0
	.cfi_lsda 0,LLSDA4904
	pushl	%ebp
	.cfi_def_cfa_offset 8
	.cfi_offset 5, -8
	movl	%esp, %ebp
	.cfi_def_cfa_register 5
	subl	$40, %esp
	movl	%ecx, -12(%ebp)
	movl	-12(%ebp), %eax
	movl	8(%eax), %eax
	movl	%eax, %edx
	movl	-12(%ebp), %eax
	movl	(%eax), %eax
	subl	%eax, %edx
	movl	%edx, %eax
	sarl	$3, %eax
	imull	$-1431655765, %eax, %eax
	movl	%eax, %ecx
	movl	-12(%ebp), %eax
	movl	(%eax), %edx
	movl	-12(%ebp), %eax
	movl	%ecx, 4(%esp)
	movl	%edx, (%esp)
	movl	%eax, %ecx
	call	__ZNSt12_Vector_baseINSt7__cxx1112basic_stringIcSt11char_traitsIcESaIcEEESaIS5_EE13_M_deallocateEPS5_j
	subl	$8, %esp
	movl	-12(%ebp), %eax
	movl	%eax, %ecx
	call	__ZNSt12_Vector_baseINSt7__cxx1112basic_stringIcSt11char_traitsIcESaIcEEESaIS5_EE12_Vector_implD1Ev
	nop
	leave
	.cfi_restore 5
	.cfi_def_cfa 4, 4
	ret
	.cfi_endproc
LFE4904:
	.section	.gcc_except_table,"w"
LLSDA4904:
	.byte	0xff
	.byte	0xff
	.byte	0x1
	.uleb128 LLSDACSE4904-LLSDACSB4904
LLSDACSB4904:
LLSDACSE4904:
	.section	.text$_ZNSt12_Vector_baseINSt7__cxx1112basic_stringIcSt11char_traitsIcESaIcEEESaIS5_EED2Ev,"x"
	.linkonce discard
	.section	.text$_ZNSt12_Vector_baseINSt7__cxx1112basic_stringIcSt11char_traitsIcESaIcEEESaIS5_EE19_M_get_Tp_allocatorEv,"x"
	.linkonce discard
	.align 2
	.globl	__ZNSt12_Vector_baseINSt7__cxx1112basic_stringIcSt11char_traitsIcESaIcEEESaIS5_EE19_M_get_Tp_allocatorEv
	.def	__ZNSt12_Vector_baseINSt7__cxx1112basic_stringIcSt11char_traitsIcESaIcEEESaIS5_EE19_M_get_Tp_allocatorEv;	.scl	2;	.type	32;	.endef
__ZNSt12_Vector_baseINSt7__cxx1112basic_stringIcSt11char_traitsIcESaIcEEESaIS5_EE19_M_get_Tp_allocatorEv:
LFB4906:
	.cfi_startproc
	pushl	%ebp
	.cfi_def_cfa_offset 8
	.cfi_offset 5, -8
	movl	%esp, %ebp
	.cfi_def_cfa_register 5
	subl	$4, %esp
	movl	%ecx, -4(%ebp)
	movl	-4(%ebp), %eax
	leave
	.cfi_restore 5
	.cfi_def_cfa 4, 4
	ret
	.cfi_endproc
LFE4906:
	.section	.text$_ZSt8_DestroyIPNSt7__cxx1112basic_stringIcSt11char_traitsIcESaIcEEES5_EvT_S7_RSaIT0_E,"x"
	.linkonce discard
	.globl	__ZSt8_DestroyIPNSt7__cxx1112basic_stringIcSt11char_traitsIcESaIcEEES5_EvT_S7_RSaIT0_E
	.def	__ZSt8_DestroyIPNSt7__cxx1112basic_stringIcSt11char_traitsIcESaIcEEES5_EvT_S7_RSaIT0_E;	.scl	2;	.type	32;	.endef
__ZSt8_DestroyIPNSt7__cxx1112basic_stringIcSt11char_traitsIcESaIcEEES5_EvT_S7_RSaIT0_E:
LFB4907:
	.cfi_startproc
	pushl	%ebp
	.cfi_def_cfa_offset 8
	.cfi_offset 5, -8
	movl	%esp, %ebp
	.cfi_def_cfa_register 5
	subl	$24, %esp
	movl	12(%ebp), %eax
	movl	%eax, 4(%esp)
	movl	8(%ebp), %eax
	movl	%eax, (%esp)
	call	__ZSt8_DestroyIPNSt7__cxx1112basic_stringIcSt11char_traitsIcESaIcEEEEvT_S7_
	nop
	leave
	.cfi_restore 5
	.cfi_def_cfa 4, 4
	ret
	.cfi_endproc
LFE4907:
	.section	.text$_ZSt7forwardIRKNSt7__cxx1112basic_stringIcSt11char_traitsIcESaIcEEEEOT_RNSt16remove_referenceIS8_E4typeE,"x"
	.linkonce discard
	.globl	__ZSt7forwardIRKNSt7__cxx1112basic_stringIcSt11char_traitsIcESaIcEEEEOT_RNSt16remove_referenceIS8_E4typeE
	.def	__ZSt7forwardIRKNSt7__cxx1112basic_stringIcSt11char_traitsIcESaIcEEEEOT_RNSt16remove_referenceIS8_E4typeE;	.scl	2;	.type	32;	.endef
__ZSt7forwardIRKNSt7__cxx1112basic_stringIcSt11char_traitsIcESaIcEEEEOT_RNSt16remove_referenceIS8_E4typeE:
LFB4930:
	.cfi_startproc
	pushl	%ebp
	.cfi_def_cfa_offset 8
	.cfi_offset 5, -8
	movl	%esp, %ebp
	.cfi_def_cfa_register 5
	movl	8(%ebp), %eax
	popl	%ebp
	.cfi_restore 5
	.cfi_def_cfa 4, 4
	ret
	.cfi_endproc
LFE4930:
	.section	.text$_ZNSt16allocator_traitsISaINSt7__cxx1112basic_stringIcSt11char_traitsIcESaIcEEEEE9constructIS5_JRKS5_EEEvRS6_PT_DpOT0_,"x"
	.linkonce discard
	.globl	__ZNSt16allocator_traitsISaINSt7__cxx1112basic_stringIcSt11char_traitsIcESaIcEEEEE9constructIS5_JRKS5_EEEvRS6_PT_DpOT0_
	.def	__ZNSt16allocator_traitsISaINSt7__cxx1112basic_stringIcSt11char_traitsIcESaIcEEEEE9constructIS5_JRKS5_EEEvRS6_PT_DpOT0_;	.scl	2;	.type	32;	.endef
__ZNSt16allocator_traitsISaINSt7__cxx1112basic_stringIcSt11char_traitsIcESaIcEEEEE9constructIS5_JRKS5_EEEvRS6_PT_DpOT0_:
LFB4929:
	.cfi_startproc
	pushl	%ebp
	.cfi_def_cfa_offset 8
	.cfi_offset 5, -8
	movl	%esp, %ebp
	.cfi_def_cfa_register 5
	subl	$24, %esp
	movl	16(%ebp), %eax
	movl	%eax, (%esp)
	call	__ZSt7forwardIRKNSt7__cxx1112basic_stringIcSt11char_traitsIcESaIcEEEEOT_RNSt16remove_referenceIS8_E4typeE
	movl	%eax, 4(%esp)
	movl	12(%ebp), %eax
	movl	%eax, (%esp)
	movl	8(%ebp), %ecx
	call	__ZN9__gnu_cxx13new_allocatorINSt7__cxx1112basic_stringIcSt11char_traitsIcESaIcEEEE9constructIS6_JRKS6_EEEvPT_DpOT0_
	subl	$8, %esp
	nop
	leave
	.cfi_restore 5
	.cfi_def_cfa 4, 4
	ret
	.cfi_endproc
LFE4929:
	.section .rdata,"dr"
LC10:
	.ascii "vector::_M_emplace_back_aux\0"
	.section	.text$_ZNSt6vectorINSt7__cxx1112basic_stringIcSt11char_traitsIcESaIcEEESaIS5_EE19_M_emplace_back_auxIJRKS5_EEEvDpOT_,"x"
	.linkonce discard
	.align 2
	.globl	__ZNSt6vectorINSt7__cxx1112basic_stringIcSt11char_traitsIcESaIcEEESaIS5_EE19_M_emplace_back_auxIJRKS5_EEEvDpOT_
	.def	__ZNSt6vectorINSt7__cxx1112basic_stringIcSt11char_traitsIcESaIcEEESaIS5_EE19_M_emplace_back_auxIJRKS5_EEEvDpOT_;	.scl	2;	.type	32;	.endef
__ZNSt6vectorINSt7__cxx1112basic_stringIcSt11char_traitsIcESaIcEEESaIS5_EE19_M_emplace_back_auxIJRKS5_EEEvDpOT_:
LFB4931:
	.cfi_startproc
	.cfi_personality 0,___gxx_personality_v0
	.cfi_lsda 0,LLSDA4931
	pushl	%ebp
	.cfi_def_cfa_offset 8
	.cfi_offset 5, -8
	movl	%esp, %ebp
	.cfi_def_cfa_register 5
	pushl	%ebx
	subl	$52, %esp
	.cfi_offset 3, -12
	movl	%ecx, -28(%ebp)
	movl	-28(%ebp), %eax
	movl	$LC10, 4(%esp)
	movl	$1, (%esp)
	movl	%eax, %ecx
LEHB28:
	call	__ZNKSt6vectorINSt7__cxx1112basic_stringIcSt11char_traitsIcESaIcEEESaIS5_EE12_M_check_lenEjPKc
	subl	$8, %esp
	movl	%eax, -16(%ebp)
	movl	-28(%ebp), %eax
	movl	-16(%ebp), %edx
	movl	%edx, (%esp)
	movl	%eax, %ecx
	call	__ZNSt12_Vector_baseINSt7__cxx1112basic_stringIcSt11char_traitsIcESaIcEEESaIS5_EE11_M_allocateEj
LEHE28:
	subl	$4, %esp
	movl	%eax, -20(%ebp)
	movl	-20(%ebp), %eax
	movl	%eax, -12(%ebp)
	movl	8(%ebp), %eax
	movl	%eax, (%esp)
	call	__ZSt7forwardIRKNSt7__cxx1112basic_stringIcSt11char_traitsIcESaIcEEEEOT_RNSt16remove_referenceIS8_E4typeE
	movl	%eax, %ebx
	movl	-28(%ebp), %eax
	movl	%eax, %ecx
	call	__ZNKSt6vectorINSt7__cxx1112basic_stringIcSt11char_traitsIcESaIcEEESaIS5_EE4sizeEv
	movl	%eax, %edx
	movl	%edx, %eax
	addl	%eax, %eax
	addl	%edx, %eax
	sall	$3, %eax
	movl	%eax, %edx
	movl	-20(%ebp), %eax
	addl	%eax, %edx
	movl	-28(%ebp), %eax
	movl	%ebx, 8(%esp)
	movl	%edx, 4(%esp)
	movl	%eax, (%esp)
LEHB29:
	call	__ZNSt16allocator_traitsISaINSt7__cxx1112basic_stringIcSt11char_traitsIcESaIcEEEEE9constructIS5_JRKS5_EEEvRS6_PT_DpOT0_
	movl	$0, -12(%ebp)
	movl	-28(%ebp), %eax
	movl	%eax, %ecx
	call	__ZNSt12_Vector_baseINSt7__cxx1112basic_stringIcSt11char_traitsIcESaIcEEESaIS5_EE19_M_get_Tp_allocatorEv
	movl	%eax, %ecx
	movl	-28(%ebp), %eax
	movl	4(%eax), %edx
	movl	-28(%ebp), %eax
	movl	(%eax), %eax
	movl	%ecx, 12(%esp)
	movl	-20(%ebp), %ecx
	movl	%ecx, 8(%esp)
	movl	%edx, 4(%esp)
	movl	%eax, (%esp)
	call	__ZSt34__uninitialized_move_if_noexcept_aIPNSt7__cxx1112basic_stringIcSt11char_traitsIcESaIcEEES6_SaIS5_EET0_T_S9_S8_RT1_
LEHE29:
	movl	%eax, -12(%ebp)
	addl	$24, -12(%ebp)
	movl	-28(%ebp), %eax
	movl	%eax, %ecx
	call	__ZNSt12_Vector_baseINSt7__cxx1112basic_stringIcSt11char_traitsIcESaIcEEESaIS5_EE19_M_get_Tp_allocatorEv
	movl	%eax, %ecx
	movl	-28(%ebp), %eax
	movl	4(%eax), %edx
	movl	-28(%ebp), %eax
	movl	(%eax), %eax
	movl	%ecx, 8(%esp)
	movl	%edx, 4(%esp)
	movl	%eax, (%esp)
LEHB30:
	call	__ZSt8_DestroyIPNSt7__cxx1112basic_stringIcSt11char_traitsIcESaIcEEES5_EvT_S7_RSaIT0_E
	movl	-28(%ebp), %eax
	movl	8(%eax), %eax
	movl	%eax, %edx
	movl	-28(%ebp), %eax
	movl	(%eax), %eax
	subl	%eax, %edx
	movl	%edx, %eax
	sarl	$3, %eax
	imull	$-1431655765, %eax, %eax
	movl	%eax, %ecx
	movl	-28(%ebp), %eax
	movl	(%eax), %edx
	movl	-28(%ebp), %eax
	movl	%ecx, 4(%esp)
	movl	%edx, (%esp)
	movl	%eax, %ecx
	call	__ZNSt12_Vector_baseINSt7__cxx1112basic_stringIcSt11char_traitsIcESaIcEEESaIS5_EE13_M_deallocateEPS5_j
LEHE30:
	subl	$8, %esp
	movl	-28(%ebp), %eax
	movl	-20(%ebp), %edx
	movl	%edx, (%eax)
	movl	-28(%ebp), %eax
	movl	-12(%ebp), %edx
	movl	%edx, 4(%eax)
	movl	-16(%ebp), %edx
	movl	%edx, %eax
	addl	%eax, %eax
	addl	%edx, %eax
	sall	$3, %eax
	movl	%eax, %edx
	movl	-20(%ebp), %eax
	addl	%eax, %edx
	movl	-28(%ebp), %eax
	movl	%edx, 8(%eax)
	jmp	L308
L306:
	movl	%eax, (%esp)
	call	___cxa_begin_catch
	cmpl	$0, -12(%ebp)
	jne	L303
	movl	-28(%ebp), %eax
	movl	%eax, %ecx
	call	__ZNKSt6vectorINSt7__cxx1112basic_stringIcSt11char_traitsIcESaIcEEESaIS5_EE4sizeEv
	movl	%eax, %edx
	movl	%edx, %eax
	addl	%eax, %eax
	addl	%edx, %eax
	sall	$3, %eax
	movl	%eax, %edx
	movl	-20(%ebp), %eax
	addl	%eax, %edx
	movl	-28(%ebp), %eax
	movl	%edx, 4(%esp)
	movl	%eax, (%esp)
LEHB31:
	call	__ZNSt16allocator_traitsISaINSt7__cxx1112basic_stringIcSt11char_traitsIcESaIcEEEEE7destroyIS5_EEvRS6_PT_
	jmp	L304
L303:
	movl	-28(%ebp), %eax
	movl	%eax, %ecx
	call	__ZNSt12_Vector_baseINSt7__cxx1112basic_stringIcSt11char_traitsIcESaIcEEESaIS5_EE19_M_get_Tp_allocatorEv
	movl	%eax, 8(%esp)
	movl	-12(%ebp), %eax
	movl	%eax, 4(%esp)
	movl	-20(%ebp), %eax
	movl	%eax, (%esp)
	call	__ZSt8_DestroyIPNSt7__cxx1112basic_stringIcSt11char_traitsIcESaIcEEES5_EvT_S7_RSaIT0_E
L304:
	movl	-28(%ebp), %eax
	movl	-16(%ebp), %edx
	movl	%edx, 4(%esp)
	movl	-20(%ebp), %edx
	movl	%edx, (%esp)
	movl	%eax, %ecx
	call	__ZNSt12_Vector_baseINSt7__cxx1112basic_stringIcSt11char_traitsIcESaIcEEESaIS5_EE13_M_deallocateEPS5_j
	subl	$8, %esp
	call	___cxa_rethrow
LEHE31:
L307:
	movl	%eax, %ebx
	call	___cxa_end_catch
	movl	%ebx, %eax
	movl	%eax, (%esp)
LEHB32:
	call	__Unwind_Resume
LEHE32:
L308:
	movl	-4(%ebp), %ebx
	leave
	.cfi_restore 5
	.cfi_restore 3
	.cfi_def_cfa 4, 4
	ret	$4
	.cfi_endproc
LFE4931:
	.section	.gcc_except_table,"w"
	.align 4
LLSDA4931:
	.byte	0xff
	.byte	0
	.uleb128 LLSDATT4931-LLSDATTD4931
LLSDATTD4931:
	.byte	0x1
	.uleb128 LLSDACSE4931-LLSDACSB4931
LLSDACSB4931:
	.uleb128 LEHB28-LFB4931
	.uleb128 LEHE28-LEHB28
	.uleb128 0
	.uleb128 0
	.uleb128 LEHB29-LFB4931
	.uleb128 LEHE29-LEHB29
	.uleb128 L306-LFB4931
	.uleb128 0x1
	.uleb128 LEHB30-LFB4931
	.uleb128 LEHE30-LEHB30
	.uleb128 0
	.uleb128 0
	.uleb128 LEHB31-LFB4931
	.uleb128 LEHE31-LEHB31
	.uleb128 L307-LFB4931
	.uleb128 0
	.uleb128 LEHB32-LFB4931
	.uleb128 LEHE32-LEHB32
	.uleb128 0
	.uleb128 0
LLSDACSE4931:
	.byte	0x1
	.byte	0
	.align 4
	.long	0
LLSDATT4931:
	.section	.text$_ZNSt6vectorINSt7__cxx1112basic_stringIcSt11char_traitsIcESaIcEEESaIS5_EE19_M_emplace_back_auxIJRKS5_EEEvDpOT_,"x"
	.linkonce discard
	.section	.text$_ZNK9__gnu_cxx17__normal_iteratorIPNSt7__cxx1112basic_stringIcSt11char_traitsIcESaIcEEESt6vectorIS6_SaIS6_EEE4baseEv,"x"
	.linkonce discard
	.align 2
	.globl	__ZNK9__gnu_cxx17__normal_iteratorIPNSt7__cxx1112basic_stringIcSt11char_traitsIcESaIcEEESt6vectorIS6_SaIS6_EEE4baseEv
	.def	__ZNK9__gnu_cxx17__normal_iteratorIPNSt7__cxx1112basic_stringIcSt11char_traitsIcESaIcEEESt6vectorIS6_SaIS6_EEE4baseEv;	.scl	2;	.type	32;	.endef
__ZNK9__gnu_cxx17__normal_iteratorIPNSt7__cxx1112basic_stringIcSt11char_traitsIcESaIcEEESt6vectorIS6_SaIS6_EEE4baseEv:
LFB4932:
	.cfi_startproc
	pushl	%ebp
	.cfi_def_cfa_offset 8
	.cfi_offset 5, -8
	movl	%esp, %ebp
	.cfi_def_cfa_register 5
	subl	$4, %esp
	movl	%ecx, -4(%ebp)
	movl	-4(%ebp), %eax
	leave
	.cfi_restore 5
	.cfi_def_cfa 4, 4
	ret
	.cfi_endproc
LFE4932:
	.section	.text$_ZN9__gnu_cxx13new_allocatorINSt7__cxx1112basic_stringIcSt11char_traitsIcESaIcEEEEC2Ev,"x"
	.linkonce discard
	.align 2
	.globl	__ZN9__gnu_cxx13new_allocatorINSt7__cxx1112basic_stringIcSt11char_traitsIcESaIcEEEEC2Ev
	.def	__ZN9__gnu_cxx13new_allocatorINSt7__cxx1112basic_stringIcSt11char_traitsIcESaIcEEEEC2Ev;	.scl	2;	.type	32;	.endef
__ZN9__gnu_cxx13new_allocatorINSt7__cxx1112basic_stringIcSt11char_traitsIcESaIcEEEEC2Ev:
LFB4934:
	.cfi_startproc
	pushl	%ebp
	.cfi_def_cfa_offset 8
	.cfi_offset 5, -8
	movl	%esp, %ebp
	.cfi_def_cfa_register 5
	subl	$4, %esp
	movl	%ecx, -4(%ebp)
	nop
	leave
	.cfi_restore 5
	.cfi_def_cfa 4, 4
	ret
	.cfi_endproc
LFE4934:
	.section	.text$_ZN9__gnu_cxx13new_allocatorINSt7__cxx1112basic_stringIcSt11char_traitsIcESaIcEEEED2Ev,"x"
	.linkonce discard
	.align 2
	.globl	__ZN9__gnu_cxx13new_allocatorINSt7__cxx1112basic_stringIcSt11char_traitsIcESaIcEEEED2Ev
	.def	__ZN9__gnu_cxx13new_allocatorINSt7__cxx1112basic_stringIcSt11char_traitsIcESaIcEEEED2Ev;	.scl	2;	.type	32;	.endef
__ZN9__gnu_cxx13new_allocatorINSt7__cxx1112basic_stringIcSt11char_traitsIcESaIcEEEED2Ev:
LFB4937:
	.cfi_startproc
	pushl	%ebp
	.cfi_def_cfa_offset 8
	.cfi_offset 5, -8
	movl	%esp, %ebp
	.cfi_def_cfa_register 5
	subl	$4, %esp
	movl	%ecx, -4(%ebp)
	nop
	leave
	.cfi_restore 5
	.cfi_def_cfa 4, 4
	ret
	.cfi_endproc
LFE4937:
	.section	.text$_ZNSt12_Vector_baseINSt7__cxx1112basic_stringIcSt11char_traitsIcESaIcEEESaIS5_EEC2EjRKS6_,"x"
	.linkonce discard
	.align 2
	.globl	__ZNSt12_Vector_baseINSt7__cxx1112basic_stringIcSt11char_traitsIcESaIcEEESaIS5_EEC2EjRKS6_
	.def	__ZNSt12_Vector_baseINSt7__cxx1112basic_stringIcSt11char_traitsIcESaIcEEESaIS5_EEC2EjRKS6_;	.scl	2;	.type	32;	.endef
__ZNSt12_Vector_baseINSt7__cxx1112basic_stringIcSt11char_traitsIcESaIcEEESaIS5_EEC2EjRKS6_:
LFB4940:
	.cfi_startproc
	.cfi_personality 0,___gxx_personality_v0
	.cfi_lsda 0,LLSDA4940
	pushl	%ebp
	.cfi_def_cfa_offset 8
	.cfi_offset 5, -8
	movl	%esp, %ebp
	.cfi_def_cfa_register 5
	pushl	%ebx
	subl	$36, %esp
	.cfi_offset 3, -12
	movl	%ecx, -12(%ebp)
	movl	-12(%ebp), %eax
	movl	12(%ebp), %edx
	movl	%edx, (%esp)
	movl	%eax, %ecx
	call	__ZNSt12_Vector_baseINSt7__cxx1112basic_stringIcSt11char_traitsIcESaIcEEESaIS5_EE12_Vector_implC1ERKS6_
	subl	$4, %esp
	movl	-12(%ebp), %eax
	movl	8(%ebp), %edx
	movl	%edx, (%esp)
	movl	%eax, %ecx
LEHB33:
	call	__ZNSt12_Vector_baseINSt7__cxx1112basic_stringIcSt11char_traitsIcESaIcEEESaIS5_EE17_M_create_storageEj
LEHE33:
	subl	$4, %esp
	jmp	L316
L315:
	movl	%eax, %ebx
	movl	-12(%ebp), %eax
	movl	%eax, %ecx
	call	__ZNSt12_Vector_baseINSt7__cxx1112basic_stringIcSt11char_traitsIcESaIcEEESaIS5_EE12_Vector_implD1Ev
	movl	%ebx, %eax
	movl	%eax, (%esp)
LEHB34:
	call	__Unwind_Resume
LEHE34:
L316:
	movl	-4(%ebp), %ebx
	leave
	.cfi_restore 5
	.cfi_restore 3
	.cfi_def_cfa 4, 4
	ret	$8
	.cfi_endproc
LFE4940:
	.section	.gcc_except_table,"w"
LLSDA4940:
	.byte	0xff
	.byte	0xff
	.byte	0x1
	.uleb128 LLSDACSE4940-LLSDACSB4940
LLSDACSB4940:
	.uleb128 LEHB33-LFB4940
	.uleb128 LEHE33-LEHB33
	.uleb128 L315-LFB4940
	.uleb128 0
	.uleb128 LEHB34-LFB4940
	.uleb128 LEHE34-LEHB34
	.uleb128 0
	.uleb128 0
LLSDACSE4940:
	.section	.text$_ZNSt12_Vector_baseINSt7__cxx1112basic_stringIcSt11char_traitsIcESaIcEEESaIS5_EEC2EjRKS6_,"x"
	.linkonce discard
	.section	.text$_ZNSt6vectorINSt7__cxx1112basic_stringIcSt11char_traitsIcESaIcEEESaIS5_EE21_M_default_initializeEj,"x"
	.linkonce discard
	.align 2
	.globl	__ZNSt6vectorINSt7__cxx1112basic_stringIcSt11char_traitsIcESaIcEEESaIS5_EE21_M_default_initializeEj
	.def	__ZNSt6vectorINSt7__cxx1112basic_stringIcSt11char_traitsIcESaIcEEESaIS5_EE21_M_default_initializeEj;	.scl	2;	.type	32;	.endef
__ZNSt6vectorINSt7__cxx1112basic_stringIcSt11char_traitsIcESaIcEEESaIS5_EE21_M_default_initializeEj:
LFB4942:
	.cfi_startproc
	pushl	%ebp
	.cfi_def_cfa_offset 8
	.cfi_offset 5, -8
	movl	%esp, %ebp
	.cfi_def_cfa_register 5
	subl	$40, %esp
	movl	%ecx, -12(%ebp)
	movl	-12(%ebp), %eax
	movl	%eax, %ecx
	call	__ZNSt12_Vector_baseINSt7__cxx1112basic_stringIcSt11char_traitsIcESaIcEEESaIS5_EE19_M_get_Tp_allocatorEv
	movl	%eax, %edx
	movl	-12(%ebp), %eax
	movl	(%eax), %eax
	movl	%edx, 8(%esp)
	movl	8(%ebp), %edx
	movl	%edx, 4(%esp)
	movl	%eax, (%esp)
	call	__ZSt27__uninitialized_default_n_aIPNSt7__cxx1112basic_stringIcSt11char_traitsIcESaIcEEEjS5_ET_S7_T0_RSaIT1_E
	movl	%eax, %edx
	movl	-12(%ebp), %eax
	movl	%edx, 4(%eax)
	nop
	leave
	.cfi_restore 5
	.cfi_def_cfa 4, 4
	ret	$4
	.cfi_endproc
LFE4942:
	.section	.text$_ZNSt12_Vector_baseIjSaIjEE12_Vector_implC1Ev,"x"
	.linkonce discard
	.align 2
	.globl	__ZNSt12_Vector_baseIjSaIjEE12_Vector_implC1Ev
	.def	__ZNSt12_Vector_baseIjSaIjEE12_Vector_implC1Ev;	.scl	2;	.type	32;	.endef
__ZNSt12_Vector_baseIjSaIjEE12_Vector_implC1Ev:
LFB4975:
	.cfi_startproc
	pushl	%ebp
	.cfi_def_cfa_offset 8
	.cfi_offset 5, -8
	movl	%esp, %ebp
	.cfi_def_cfa_register 5
	subl	$24, %esp
	movl	%ecx, -12(%ebp)
	movl	-12(%ebp), %eax
	movl	%eax, %ecx
	call	__ZNSaIjEC2Ev
	movl	-12(%ebp), %eax
	movl	$0, (%eax)
	movl	-12(%ebp), %eax
	movl	$0, 4(%eax)
	movl	-12(%ebp), %eax
	movl	$0, 8(%eax)
	nop
	leave
	.cfi_restore 5
	.cfi_def_cfa 4, 4
	ret
	.cfi_endproc
LFE4975:
	.section	.text$_ZNSaIjED2Ev,"x"
	.linkonce discard
	.align 2
	.globl	__ZNSaIjED2Ev
	.def	__ZNSaIjED2Ev;	.scl	2;	.type	32;	.endef
__ZNSaIjED2Ev:
LFB4977:
	.cfi_startproc
	pushl	%ebp
	.cfi_def_cfa_offset 8
	.cfi_offset 5, -8
	movl	%esp, %ebp
	.cfi_def_cfa_register 5
	subl	$24, %esp
	movl	%ecx, -12(%ebp)
	movl	-12(%ebp), %eax
	movl	%eax, %ecx
	call	__ZN9__gnu_cxx13new_allocatorIjED2Ev
	nop
	leave
	.cfi_restore 5
	.cfi_def_cfa 4, 4
	ret
	.cfi_endproc
LFE4977:
	.section	.text$_ZNSt12_Vector_baseIjSaIjEE13_M_deallocateEPjj,"x"
	.linkonce discard
	.align 2
	.globl	__ZNSt12_Vector_baseIjSaIjEE13_M_deallocateEPjj
	.def	__ZNSt12_Vector_baseIjSaIjEE13_M_deallocateEPjj;	.scl	2;	.type	32;	.endef
__ZNSt12_Vector_baseIjSaIjEE13_M_deallocateEPjj:
LFB4979:
	.cfi_startproc
	pushl	%ebp
	.cfi_def_cfa_offset 8
	.cfi_offset 5, -8
	movl	%esp, %ebp
	.cfi_def_cfa_register 5
	subl	$40, %esp
	movl	%ecx, -12(%ebp)
	cmpl	$0, 8(%ebp)
	je	L322
	movl	-12(%ebp), %eax
	movl	12(%ebp), %edx
	movl	%edx, 8(%esp)
	movl	8(%ebp), %edx
	movl	%edx, 4(%esp)
	movl	%eax, (%esp)
	call	__ZNSt16allocator_traitsISaIjEE10deallocateERS0_Pjj
L322:
	nop
	leave
	.cfi_restore 5
	.cfi_def_cfa 4, 4
	ret	$8
	.cfi_endproc
LFE4979:
	.section	.text$_ZSt8_DestroyIPjEvT_S1_,"x"
	.linkonce discard
	.globl	__ZSt8_DestroyIPjEvT_S1_
	.def	__ZSt8_DestroyIPjEvT_S1_;	.scl	2;	.type	32;	.endef
__ZSt8_DestroyIPjEvT_S1_:
LFB4980:
	.cfi_startproc
	pushl	%ebp
	.cfi_def_cfa_offset 8
	.cfi_offset 5, -8
	movl	%esp, %ebp
	.cfi_def_cfa_register 5
	subl	$24, %esp
	movl	12(%ebp), %eax
	movl	%eax, 4(%esp)
	movl	8(%ebp), %eax
	movl	%eax, (%esp)
	call	__ZNSt12_Destroy_auxILb1EE9__destroyIPjEEvT_S3_
	nop
	leave
	.cfi_restore 5
	.cfi_def_cfa 4, 4
	ret
	.cfi_endproc
LFE4980:
	.section	.text$_ZN9__gnu_cxx5__ops16_Iter_equals_valIKcEC1ERS2_,"x"
	.linkonce discard
	.align 2
	.globl	__ZN9__gnu_cxx5__ops16_Iter_equals_valIKcEC1ERS2_
	.def	__ZN9__gnu_cxx5__ops16_Iter_equals_valIKcEC1ERS2_;	.scl	2;	.type	32;	.endef
__ZN9__gnu_cxx5__ops16_Iter_equals_valIKcEC1ERS2_:
LFB4983:
	.cfi_startproc
	pushl	%ebp
	.cfi_def_cfa_offset 8
	.cfi_offset 5, -8
	movl	%esp, %ebp
	.cfi_def_cfa_register 5
	subl	$4, %esp
	movl	%ecx, -4(%ebp)
	movl	-4(%ebp), %eax
	movl	8(%ebp), %edx
	movl	%edx, (%eax)
	nop
	leave
	.cfi_restore 5
	.cfi_def_cfa 4, 4
	ret	$4
	.cfi_endproc
LFE4983:
	.section	.text$_ZN9__gnu_cxxneIPKcNSt7__cxx1112basic_stringIcSt11char_traitsIcESaIcEEEEEbRKNS_17__normal_iteratorIT_T0_EESE_,"x"
	.linkonce discard
	.globl	__ZN9__gnu_cxxneIPKcNSt7__cxx1112basic_stringIcSt11char_traitsIcESaIcEEEEEbRKNS_17__normal_iteratorIT_T0_EESE_
	.def	__ZN9__gnu_cxxneIPKcNSt7__cxx1112basic_stringIcSt11char_traitsIcESaIcEEEEEbRKNS_17__normal_iteratorIT_T0_EESE_;	.scl	2;	.type	32;	.endef
__ZN9__gnu_cxxneIPKcNSt7__cxx1112basic_stringIcSt11char_traitsIcESaIcEEEEEbRKNS_17__normal_iteratorIT_T0_EESE_:
LFB4984:
	.cfi_startproc
	pushl	%ebp
	.cfi_def_cfa_offset 8
	.cfi_offset 5, -8
	movl	%esp, %ebp
	.cfi_def_cfa_register 5
	pushl	%ebx
	subl	$4, %esp
	.cfi_offset 3, -12
	movl	8(%ebp), %ecx
	call	__ZNK9__gnu_cxx17__normal_iteratorIPKcNSt7__cxx1112basic_stringIcSt11char_traitsIcESaIcEEEE4baseEv
	movl	(%eax), %ebx
	movl	12(%ebp), %eax
	movl	%eax, %ecx
	call	__ZNK9__gnu_cxx17__normal_iteratorIPKcNSt7__cxx1112basic_stringIcSt11char_traitsIcESaIcEEEE4baseEv
	movl	(%eax), %eax
	cmpl	%eax, %ebx
	setne	%al
	addl	$4, %esp
	popl	%ebx
	.cfi_restore 3
	popl	%ebp
	.cfi_restore 5
	.cfi_def_cfa 4, 4
	ret
	.cfi_endproc
LFE4984:
	.section	.text$_ZN9__gnu_cxx17__normal_iteratorIPKcNSt7__cxx1112basic_stringIcSt11char_traitsIcESaIcEEEEppEv,"x"
	.linkonce discard
	.align 2
	.globl	__ZN9__gnu_cxx17__normal_iteratorIPKcNSt7__cxx1112basic_stringIcSt11char_traitsIcESaIcEEEEppEv
	.def	__ZN9__gnu_cxx17__normal_iteratorIPKcNSt7__cxx1112basic_stringIcSt11char_traitsIcESaIcEEEEppEv;	.scl	2;	.type	32;	.endef
__ZN9__gnu_cxx17__normal_iteratorIPKcNSt7__cxx1112basic_stringIcSt11char_traitsIcESaIcEEEEppEv:
LFB4985:
	.cfi_startproc
	pushl	%ebp
	.cfi_def_cfa_offset 8
	.cfi_offset 5, -8
	movl	%esp, %ebp
	.cfi_def_cfa_register 5
	subl	$4, %esp
	movl	%ecx, -4(%ebp)
	movl	-4(%ebp), %eax
	movl	(%eax), %eax
	leal	1(%eax), %edx
	movl	-4(%ebp), %eax
	movl	%edx, (%eax)
	movl	-4(%ebp), %eax
	leave
	.cfi_restore 5
	.cfi_def_cfa 4, 4
	ret
	.cfi_endproc
LFE4985:
	.section	.text$_ZN9__gnu_cxx5__ops16_Iter_equals_valIKcEclINS_17__normal_iteratorIPS2_NSt7__cxx1112basic_stringIcSt11char_traitsIcESaIcEEEEEEEbT_,"x"
	.linkonce discard
	.align 2
	.globl	__ZN9__gnu_cxx5__ops16_Iter_equals_valIKcEclINS_17__normal_iteratorIPS2_NSt7__cxx1112basic_stringIcSt11char_traitsIcESaIcEEEEEEEbT_
	.def	__ZN9__gnu_cxx5__ops16_Iter_equals_valIKcEclINS_17__normal_iteratorIPS2_NSt7__cxx1112basic_stringIcSt11char_traitsIcESaIcEEEEEEEbT_;	.scl	2;	.type	32;	.endef
__ZN9__gnu_cxx5__ops16_Iter_equals_valIKcEclINS_17__normal_iteratorIPS2_NSt7__cxx1112basic_stringIcSt11char_traitsIcESaIcEEEEEEEbT_:
LFB4986:
	.cfi_startproc
	pushl	%ebp
	.cfi_def_cfa_offset 8
	.cfi_offset 5, -8
	movl	%esp, %ebp
	.cfi_def_cfa_register 5
	subl	$24, %esp
	movl	%ecx, -12(%ebp)
	leal	8(%ebp), %ecx
	call	__ZNK9__gnu_cxx17__normal_iteratorIPKcNSt7__cxx1112basic_stringIcSt11char_traitsIcESaIcEEEEdeEv
	movzbl	(%eax), %edx
	movl	-12(%ebp), %eax
	movl	(%eax), %eax
	movzbl	(%eax), %eax
	cmpb	%al, %dl
	sete	%al
	leave
	.cfi_restore 5
	.cfi_def_cfa 4, 4
	ret	$4
	.cfi_endproc
LFE4986:
	.section	.text$_ZNSt16allocator_traitsISaIcEE37select_on_container_copy_constructionERKS0_,"x"
	.linkonce discard
	.globl	__ZNSt16allocator_traitsISaIcEE37select_on_container_copy_constructionERKS0_
	.def	__ZNSt16allocator_traitsISaIcEE37select_on_container_copy_constructionERKS0_;	.scl	2;	.type	32;	.endef
__ZNSt16allocator_traitsISaIcEE37select_on_container_copy_constructionERKS0_:
LFB4987:
	.cfi_startproc
	pushl	%ebp
	.cfi_def_cfa_offset 8
	.cfi_offset 5, -8
	movl	%esp, %ebp
	.cfi_def_cfa_register 5
	subl	$24, %esp
	movl	12(%ebp), %eax
	movl	%eax, (%esp)
	movl	8(%ebp), %ecx
	call	__ZNSaIcEC1ERKS_
	subl	$4, %esp
	movl	8(%ebp), %eax
	leave
	.cfi_restore 5
	.cfi_def_cfa 4, 4
	ret
	.cfi_endproc
LFE4987:
	.section	.text$_ZNSt7__cxx1112basic_stringIcSt11char_traitsIcESaIcEE16_M_construct_auxIPcEEvT_S7_St12__false_type,"x"
	.linkonce discard
	.align 2
	.globl	__ZNSt7__cxx1112basic_stringIcSt11char_traitsIcESaIcEE16_M_construct_auxIPcEEvT_S7_St12__false_type
	.def	__ZNSt7__cxx1112basic_stringIcSt11char_traitsIcESaIcEE16_M_construct_auxIPcEEvT_S7_St12__false_type;	.scl	2;	.type	32;	.endef
__ZNSt7__cxx1112basic_stringIcSt11char_traitsIcESaIcEE16_M_construct_auxIPcEEvT_S7_St12__false_type:
LFB4988:
	.cfi_startproc
	pushl	%ebp
	.cfi_def_cfa_offset 8
	.cfi_offset 5, -8
	movl	%esp, %ebp
	.cfi_def_cfa_register 5
	subl	$56, %esp
	movl	%ecx, -28(%ebp)
	movl	-28(%ebp), %eax
	movb	%dl, 8(%esp)
	movl	12(%ebp), %edx
	movl	%edx, 4(%esp)
	movl	8(%ebp), %edx
	movl	%edx, (%esp)
	movl	%eax, %ecx
	call	__ZNSt7__cxx1112basic_stringIcSt11char_traitsIcESaIcEE12_M_constructIPcEEvT_S7_St20forward_iterator_tag
	subl	$12, %esp
	nop
	leave
	.cfi_restore 5
	.cfi_def_cfa 4, 4
	ret	$12
	.cfi_endproc
LFE4988:
	.section	.text$_ZSt4moveIRSt6localeEONSt16remove_referenceIT_E4typeEOS3_,"x"
	.linkonce discard
	.globl	__ZSt4moveIRSt6localeEONSt16remove_referenceIT_E4typeEOS3_
	.def	__ZSt4moveIRSt6localeEONSt16remove_referenceIT_E4typeEOS3_;	.scl	2;	.type	32;	.endef
__ZSt4moveIRSt6localeEONSt16remove_referenceIT_E4typeEOS3_:
LFB4990:
	.cfi_startproc
	pushl	%ebp
	.cfi_def_cfa_offset 8
	.cfi_offset 5, -8
	movl	%esp, %ebp
	.cfi_def_cfa_register 5
	movl	8(%ebp), %eax
	popl	%ebp
	.cfi_restore 5
	.cfi_def_cfa 4, 4
	ret
	.cfi_endproc
LFE4990:
	.section	.text$_ZNSt7__cxx1111basic_regexIcNS_12regex_traitsIcEEEC1IPKcEET_S7_St6localeNSt15regex_constants18syntax_option_typeE,"x"
	.linkonce discard
	.align 2
	.globl	__ZNSt7__cxx1111basic_regexIcNS_12regex_traitsIcEEEC1IPKcEET_S7_St6localeNSt15regex_constants18syntax_option_typeE
	.def	__ZNSt7__cxx1111basic_regexIcNS_12regex_traitsIcEEEC1IPKcEET_S7_St6localeNSt15regex_constants18syntax_option_typeE;	.scl	2;	.type	32;	.endef
__ZNSt7__cxx1111basic_regexIcNS_12regex_traitsIcEEEC1IPKcEET_S7_St6localeNSt15regex_constants18syntax_option_typeE:
LFB4992:
	.cfi_startproc
	.cfi_personality 0,___gxx_personality_v0
	.cfi_lsda 0,LLSDA4992
	pushl	%ebp
	.cfi_def_cfa_offset 8
	.cfi_offset 5, -8
	movl	%esp, %ebp
	.cfi_def_cfa_register 5
	pushl	%edi
	pushl	%esi
	pushl	%ebx
	subl	$60, %esp
	.cfi_offset 7, -12
	.cfi_offset 6, -16
	.cfi_offset 3, -20
	movl	%ecx, -28(%ebp)
	movl	-28(%ebp), %eax
	movl	20(%ebp), %edx
	movl	%edx, (%eax)
	movl	16(%ebp), %eax
	movl	%eax, (%esp)
	call	__ZSt4moveIRSt6localeEONSt16remove_referenceIT_E4typeEOS3_
	movl	%eax, %edx
	movl	-28(%ebp), %eax
	addl	$4, %eax
	movl	%edx, (%esp)
	movl	%eax, %ecx
	call	__ZNSt6localeC1ERKS_
	subl	$4, %esp
	movl	-28(%ebp), %eax
	movl	(%eax), %esi
	movl	-28(%ebp), %eax
	leal	4(%eax), %edi
	leal	12(%ebp), %eax
	movl	%eax, (%esp)
	call	__ZSt4moveIRPKcEONSt16remove_referenceIT_E4typeEOS4_
	movl	(%eax), %ebx
	leal	8(%ebp), %eax
	movl	%eax, (%esp)
	call	__ZSt4moveIRPKcEONSt16remove_referenceIT_E4typeEOS4_
	movl	(%eax), %eax
	movl	-28(%ebp), %edx
	addl	$8, %edx
	movl	%esi, 16(%esp)
	movl	%edi, 12(%esp)
	movl	%ebx, 8(%esp)
	movl	%eax, 4(%esp)
	movl	%edx, (%esp)
LEHB35:
	call	__ZNSt8__detail13__compile_nfaIPKcNSt7__cxx1112regex_traitsIcEEEENSt9enable_ifIXsrNS_27__is_contiguous_normal_iterIT_EE5valueESt10shared_ptrIKNS_4_NFAIT0_EEEE4typeES8_S8_RKNSC_11locale_typeENSt15regex_constants18syntax_option_typeE
LEHE35:
	jmp	L339
L338:
	movl	%eax, %ebx
	movl	-28(%ebp), %eax
	addl	$4, %eax
	movl	%eax, %ecx
	call	__ZNSt6localeD1Ev
	movl	%ebx, %eax
	movl	%eax, (%esp)
LEHB36:
	call	__Unwind_Resume
LEHE36:
L339:
	leal	-12(%ebp), %esp
	popl	%ebx
	.cfi_restore 3
	popl	%esi
	.cfi_restore 6
	popl	%edi
	.cfi_restore 7
	popl	%ebp
	.cfi_restore 5
	.cfi_def_cfa 4, 4
	ret	$16
	.cfi_endproc
LFE4992:
	.section	.gcc_except_table,"w"
LLSDA4992:
	.byte	0xff
	.byte	0xff
	.byte	0x1
	.uleb128 LLSDACSE4992-LLSDACSB4992
LLSDACSB4992:
	.uleb128 LEHB35-LFB4992
	.uleb128 LEHE35-LEHB35
	.uleb128 L338-LFB4992
	.uleb128 0
	.uleb128 LEHB36-LFB4992
	.uleb128 LEHE36-LEHB36
	.uleb128 0
	.uleb128 0
LLSDACSE4992:
	.section	.text$_ZNSt7__cxx1111basic_regexIcNS_12regex_traitsIcEEEC1IPKcEET_S7_St6localeNSt15regex_constants18syntax_option_typeE,"x"
	.linkonce discard
	.section	.text$_ZNSt16_Sp_counted_baseILN9__gnu_cxx12_Lock_policyE2EE10_M_releaseEv,"x"
	.linkonce discard
	.align 2
	.globl	__ZNSt16_Sp_counted_baseILN9__gnu_cxx12_Lock_policyE2EE10_M_releaseEv
	.def	__ZNSt16_Sp_counted_baseILN9__gnu_cxx12_Lock_policyE2EE10_M_releaseEv;	.scl	2;	.type	32;	.endef
__ZNSt16_Sp_counted_baseILN9__gnu_cxx12_Lock_policyE2EE10_M_releaseEv:
LFB4993:
	.cfi_startproc
	pushl	%ebp
	.cfi_def_cfa_offset 8
	.cfi_offset 5, -8
	movl	%esp, %ebp
	.cfi_def_cfa_register 5
	subl	$40, %esp
	movl	%ecx, -12(%ebp)
	movl	-12(%ebp), %eax
	addl	$4, %eax
	movl	$-1, 4(%esp)
	movl	%eax, (%esp)
	call	__ZN9__gnu_cxxL27__exchange_and_add_dispatchEPii
	cmpl	$1, %eax
	sete	%al
	testb	%al, %al
	je	L342
	movl	-12(%ebp), %eax
	movl	(%eax), %eax
	addl	$8, %eax
	movl	(%eax), %eax
	movl	-12(%ebp), %edx
	movl	%edx, %ecx
	call	*%eax
	movl	-12(%ebp), %eax
	addl	$8, %eax
	movl	$-1, 4(%esp)
	movl	%eax, (%esp)
	call	__ZN9__gnu_cxxL27__exchange_and_add_dispatchEPii
	cmpl	$1, %eax
	sete	%al
	testb	%al, %al
	je	L342
	movl	-12(%ebp), %eax
	movl	(%eax), %eax
	addl	$12, %eax
	movl	(%eax), %eax
	movl	-12(%ebp), %edx
	movl	%edx, %ecx
	call	*%eax
L342:
	nop
	leave
	.cfi_restore 5
	.cfi_def_cfa 4, 4
	ret
	.cfi_endproc
LFE4993:
	.section	.text$_ZNSt8iteratorISt19output_iterator_tagvvvvEC2Ev,"x"
	.linkonce discard
	.align 2
	.globl	__ZNSt8iteratorISt19output_iterator_tagvvvvEC2Ev
	.def	__ZNSt8iteratorISt19output_iterator_tagvvvvEC2Ev;	.scl	2;	.type	32;	.endef
__ZNSt8iteratorISt19output_iterator_tagvvvvEC2Ev:
LFB4996:
	.cfi_startproc
	pushl	%ebp
	.cfi_def_cfa_offset 8
	.cfi_offset 5, -8
	movl	%esp, %ebp
	.cfi_def_cfa_register 5
	subl	$4, %esp
	movl	%ecx, -4(%ebp)
	nop
	leave
	.cfi_restore 5
	.cfi_def_cfa 4, 4
	ret
	.cfi_endproc
LFE4996:
	.section	.text$_ZNSt20back_insert_iteratorINSt7__cxx1112basic_stringIcSt11char_traitsIcESaIcEEEEC1ERS5_,"x"
	.linkonce discard
	.align 2
	.globl	__ZNSt20back_insert_iteratorINSt7__cxx1112basic_stringIcSt11char_traitsIcESaIcEEEEC1ERS5_
	.def	__ZNSt20back_insert_iteratorINSt7__cxx1112basic_stringIcSt11char_traitsIcESaIcEEEEC1ERS5_;	.scl	2;	.type	32;	.endef
__ZNSt20back_insert_iteratorINSt7__cxx1112basic_stringIcSt11char_traitsIcESaIcEEEEC1ERS5_:
LFB4999:
	.cfi_startproc
	pushl	%ebp
	.cfi_def_cfa_offset 8
	.cfi_offset 5, -8
	movl	%esp, %ebp
	.cfi_def_cfa_register 5
	subl	$40, %esp
	movl	%ecx, -12(%ebp)
	movl	-12(%ebp), %eax
	movl	%eax, %ecx
	call	__ZNSt8iteratorISt19output_iterator_tagvvvvEC2Ev
	movl	8(%ebp), %eax
	movl	%eax, (%esp)
	call	__ZSt11__addressofINSt7__cxx1112basic_stringIcSt11char_traitsIcESaIcEEEEPT_RS6_
	movl	%eax, %edx
	movl	-12(%ebp), %eax
	movl	%edx, (%eax)
	nop
	leave
	.cfi_restore 5
	.cfi_def_cfa 4, 4
	ret	$4
	.cfi_endproc
LFE4999:
	.section	.text$_ZNSt7__cxx1114regex_iteratorIN9__gnu_cxx17__normal_iteratorIPKcNS_12basic_stringIcSt11char_traitsIcESaIcEEEEEcNS_12regex_traitsIcEEED1Ev,"x"
	.linkonce discard
	.align 2
	.globl	__ZNSt7__cxx1114regex_iteratorIN9__gnu_cxx17__normal_iteratorIPKcNS_12basic_stringIcSt11char_traitsIcESaIcEEEEEcNS_12regex_traitsIcEEED1Ev
	.def	__ZNSt7__cxx1114regex_iteratorIN9__gnu_cxx17__normal_iteratorIPKcNS_12basic_stringIcSt11char_traitsIcESaIcEEEEEcNS_12regex_traitsIcEEED1Ev;	.scl	2;	.type	32;	.endef
__ZNSt7__cxx1114regex_iteratorIN9__gnu_cxx17__normal_iteratorIPKcNS_12basic_stringIcSt11char_traitsIcESaIcEEEEEcNS_12regex_traitsIcEEED1Ev:
LFB5003:
	.cfi_startproc
	pushl	%ebp
	.cfi_def_cfa_offset 8
	.cfi_offset 5, -8
	movl	%esp, %ebp
	.cfi_def_cfa_register 5
	subl	$24, %esp
	movl	%ecx, -12(%ebp)
	movl	-12(%ebp), %eax
	addl	$16, %eax
	movl	%eax, %ecx
	call	__ZNSt7__cxx1113match_resultsIN9__gnu_cxx17__normal_iteratorIPKcNS_12basic_stringIcSt11char_traitsIcESaIcEEEEESaINS_9sub_matchISA_EEEED1Ev
	nop
	leave
	.cfi_restore 5
	.cfi_def_cfa 4, 4
	ret
	.cfi_endproc
LFE5003:
	.section	.text$_ZN9__gnu_cxx17__normal_iteratorIPKcNSt7__cxx1112basic_stringIcSt11char_traitsIcESaIcEEEEC1Ev,"x"
	.linkonce discard
	.align 2
	.globl	__ZN9__gnu_cxx17__normal_iteratorIPKcNSt7__cxx1112basic_stringIcSt11char_traitsIcESaIcEEEEC1Ev
	.def	__ZN9__gnu_cxx17__normal_iteratorIPKcNSt7__cxx1112basic_stringIcSt11char_traitsIcESaIcEEEEC1Ev;	.scl	2;	.type	32;	.endef
__ZN9__gnu_cxx17__normal_iteratorIPKcNSt7__cxx1112basic_stringIcSt11char_traitsIcESaIcEEEEC1Ev:
LFB5012:
	.cfi_startproc
	pushl	%ebp
	.cfi_def_cfa_offset 8
	.cfi_offset 5, -8
	movl	%esp, %ebp
	.cfi_def_cfa_register 5
	subl	$4, %esp
	movl	%ecx, -4(%ebp)
	movl	-4(%ebp), %eax
	movl	$0, (%eax)
	nop
	leave
	.cfi_restore 5
	.cfi_def_cfa 4, 4
	ret
	.cfi_endproc
LFE5012:
	.section	.text$_ZNSt4pairIN9__gnu_cxx17__normal_iteratorIPKcNSt7__cxx1112basic_stringIcSt11char_traitsIcESaIcEEEEESA_EC2ISA_SA_Lb1EEEv,"x"
	.linkonce discard
	.align 2
	.globl	__ZNSt4pairIN9__gnu_cxx17__normal_iteratorIPKcNSt7__cxx1112basic_stringIcSt11char_traitsIcESaIcEEEEESA_EC2ISA_SA_Lb1EEEv
	.def	__ZNSt4pairIN9__gnu_cxx17__normal_iteratorIPKcNSt7__cxx1112basic_stringIcSt11char_traitsIcESaIcEEEEESA_EC2ISA_SA_Lb1EEEv;	.scl	2;	.type	32;	.endef
__ZNSt4pairIN9__gnu_cxx17__normal_iteratorIPKcNSt7__cxx1112basic_stringIcSt11char_traitsIcESaIcEEEEESA_EC2ISA_SA_Lb1EEEv:
LFB5013:
	.cfi_startproc
	pushl	%ebp
	.cfi_def_cfa_offset 8
	.cfi_offset 5, -8
	movl	%esp, %ebp
	.cfi_def_cfa_register 5
	subl	$24, %esp
	movl	%ecx, -12(%ebp)
	movl	-12(%ebp), %eax
	movl	%eax, %ecx
	call	__ZN9__gnu_cxx17__normal_iteratorIPKcNSt7__cxx1112basic_stringIcSt11char_traitsIcESaIcEEEEC1Ev
	movl	-12(%ebp), %eax
	addl	$4, %eax
	movl	%eax, %ecx
	call	__ZN9__gnu_cxx17__normal_iteratorIPKcNSt7__cxx1112basic_stringIcSt11char_traitsIcESaIcEEEEC1Ev
	nop
	leave
	.cfi_restore 5
	.cfi_def_cfa 4, 4
	ret
	.cfi_endproc
LFE5013:
	.section	.text$_ZNSt7__cxx119sub_matchIN9__gnu_cxx17__normal_iteratorIPKcNS_12basic_stringIcSt11char_traitsIcESaIcEEEEEEC1Ev,"x"
	.linkonce discard
	.align 2
	.globl	__ZNSt7__cxx119sub_matchIN9__gnu_cxx17__normal_iteratorIPKcNS_12basic_stringIcSt11char_traitsIcESaIcEEEEEEC1Ev
	.def	__ZNSt7__cxx119sub_matchIN9__gnu_cxx17__normal_iteratorIPKcNS_12basic_stringIcSt11char_traitsIcESaIcEEEEEEC1Ev;	.scl	2;	.type	32;	.endef
__ZNSt7__cxx119sub_matchIN9__gnu_cxx17__normal_iteratorIPKcNS_12basic_stringIcSt11char_traitsIcESaIcEEEEEEC1Ev:
LFB5016:
	.cfi_startproc
	pushl	%ebp
	.cfi_def_cfa_offset 8
	.cfi_offset 5, -8
	movl	%esp, %ebp
	.cfi_def_cfa_register 5
	subl	$24, %esp
	movl	%ecx, -12(%ebp)
	movl	-12(%ebp), %eax
	movl	%eax, %ecx
	call	__ZNSt4pairIN9__gnu_cxx17__normal_iteratorIPKcNSt7__cxx1112basic_stringIcSt11char_traitsIcESaIcEEEEESA_EC2ISA_SA_Lb1EEEv
	movl	-12(%ebp), %eax
	movb	$0, 8(%eax)
	nop
	leave
	.cfi_restore 5
	.cfi_def_cfa 4, 4
	ret
	.cfi_endproc
LFE5016:
	.section	.text$_ZNSt7__cxx119sub_matchIN9__gnu_cxx17__normal_iteratorIPKcNS_12basic_stringIcSt11char_traitsIcESaIcEEEEEEaSERKSB_,"x"
	.linkonce discard
	.align 2
	.globl	__ZNSt7__cxx119sub_matchIN9__gnu_cxx17__normal_iteratorIPKcNS_12basic_stringIcSt11char_traitsIcESaIcEEEEEEaSERKSB_
	.def	__ZNSt7__cxx119sub_matchIN9__gnu_cxx17__normal_iteratorIPKcNS_12basic_stringIcSt11char_traitsIcESaIcEEEEEEaSERKSB_;	.scl	2;	.type	32;	.endef
__ZNSt7__cxx119sub_matchIN9__gnu_cxx17__normal_iteratorIPKcNS_12basic_stringIcSt11char_traitsIcESaIcEEEEEEaSERKSB_:
LFB5017:
	.cfi_startproc
	pushl	%ebp
	.cfi_def_cfa_offset 8
	.cfi_offset 5, -8
	movl	%esp, %ebp
	.cfi_def_cfa_register 5
	subl	$40, %esp
	movl	%ecx, -12(%ebp)
	movl	8(%ebp), %edx
	movl	-12(%ebp), %eax
	movl	%edx, (%esp)
	movl	%eax, %ecx
	call	__ZNSt4pairIN9__gnu_cxx17__normal_iteratorIPKcNSt7__cxx1112basic_stringIcSt11char_traitsIcESaIcEEEEESA_EaSERKSB_
	subl	$4, %esp
	movl	8(%ebp), %eax
	movzbl	8(%eax), %edx
	movl	-12(%ebp), %eax
	movb	%dl, 8(%eax)
	movl	-12(%ebp), %eax
	leave
	.cfi_restore 5
	.cfi_def_cfa 4, 4
	ret	$4
	.cfi_endproc
LFE5017:
	.section	.text$_ZSt13regex_replaceISt20back_insert_iteratorINSt7__cxx1112basic_stringIcSt11char_traitsIcESaIcEEEEN9__gnu_cxx17__normal_iteratorIPKcS6_EENS1_12regex_traitsIcEEcET_SF_T0_SG_RKNS1_11basic_regexIT2_T1_EEPKSI_NSt15regex_constants15match_flag_typeE,"x"
	.linkonce discard
	.globl	__ZSt13regex_replaceISt20back_insert_iteratorINSt7__cxx1112basic_stringIcSt11char_traitsIcESaIcEEEEN9__gnu_cxx17__normal_iteratorIPKcS6_EENS1_12regex_traitsIcEEcET_SF_T0_SG_RKNS1_11basic_regexIT2_T1_EEPKSI_NSt15regex_constants15match_flag_typeE
	.def	__ZSt13regex_replaceISt20back_insert_iteratorINSt7__cxx1112basic_stringIcSt11char_traitsIcESaIcEEEEN9__gnu_cxx17__normal_iteratorIPKcS6_EENS1_12regex_traitsIcEEcET_SF_T0_SG_RKNS1_11basic_regexIT2_T1_EEPKSI_NSt15regex_constants15match_flag_typeE;	.scl	2;	.type	32;	.endef
__ZSt13regex_replaceISt20back_insert_iteratorINSt7__cxx1112basic_stringIcSt11char_traitsIcESaIcEEEEN9__gnu_cxx17__normal_iteratorIPKcS6_EENS1_12regex_traitsIcEEcET_SF_T0_SG_RKNS1_11basic_regexIT2_T1_EEPKSI_NSt15regex_constants15match_flag_typeE:
LFB5000:
	.cfi_startproc
	.cfi_personality 0,___gxx_personality_v0
	.cfi_lsda 0,LLSDA5000
	pushl	%ebp
	.cfi_def_cfa_offset 8
	.cfi_offset 5, -8
	movl	%esp, %ebp
	.cfi_def_cfa_register 5
	pushl	%ebx
	subl	$100, %esp
	.cfi_offset 3, -12
	leal	-44(%ebp), %eax
	movl	28(%ebp), %edx
	movl	%edx, 12(%esp)
	movl	20(%ebp), %edx
	movl	%edx, 8(%esp)
	movl	16(%ebp), %edx
	movl	%edx, 4(%esp)
	movl	12(%ebp), %edx
	movl	%edx, (%esp)
	movl	%eax, %ecx
LEHB37:
	call	__ZNSt7__cxx1114regex_iteratorIN9__gnu_cxx17__normal_iteratorIPKcNS_12basic_stringIcSt11char_traitsIcESaIcEEEEEcNS_12regex_traitsIcEEEC1ESA_SA_RKNS_11basic_regexIcSC_EENSt15regex_constants15match_flag_typeE
LEHE37:
	subl	$16, %esp
	leal	-76(%ebp), %eax
	movl	%eax, %ecx
LEHB38:
	call	__ZNSt7__cxx1114regex_iteratorIN9__gnu_cxx17__normal_iteratorIPKcNS_12basic_stringIcSt11char_traitsIcESaIcEEEEEcNS_12regex_traitsIcEEEC1Ev
LEHE38:
	leal	-44(%ebp), %eax
	leal	-76(%ebp), %edx
	movl	%edx, (%esp)
	movl	%eax, %ecx
LEHB39:
	call	__ZNKSt7__cxx1114regex_iteratorIN9__gnu_cxx17__normal_iteratorIPKcNS_12basic_stringIcSt11char_traitsIcESaIcEEEEEcNS_12regex_traitsIcEEEeqERKSD_
	subl	$4, %esp
	testb	%al, %al
	je	L352
	movl	$512, 4(%esp)
	movl	28(%ebp), %eax
	movl	%eax, (%esp)
	call	__ZNSt15regex_constantsanENS_15match_flag_typeES0_
	testl	%eax, %eax
	sete	%al
	testb	%al, %al
	je	L353
	movl	8(%ebp), %eax
	movl	%eax, 8(%esp)
	movl	16(%ebp), %eax
	movl	%eax, 4(%esp)
	movl	12(%ebp), %eax
	movl	%eax, (%esp)
	call	__ZSt4copyIN9__gnu_cxx17__normal_iteratorIPKcNSt7__cxx1112basic_stringIcSt11char_traitsIcESaIcEEEEESt20back_insert_iteratorIS9_EET0_T_SE_SD_
	movl	%eax, 8(%ebp)
	jmp	L353
L352:
	movl	$0, -88(%ebp)
	movl	$0, -84(%ebp)
	movb	$0, -80(%ebp)
	movl	24(%ebp), %eax
	movl	%eax, (%esp)
	call	__ZNSt11char_traitsIcE6lengthEPKc
	movl	%eax, -12(%ebp)
L357:
	leal	-44(%ebp), %eax
	leal	-76(%ebp), %edx
	movl	%edx, (%esp)
	movl	%eax, %ecx
	call	__ZNKSt7__cxx1114regex_iteratorIN9__gnu_cxx17__normal_iteratorIPKcNS_12basic_stringIcSt11char_traitsIcESaIcEEEEEcNS_12regex_traitsIcEEEneERKSD_
	subl	$4, %esp
	testb	%al, %al
	je	L354
	movl	$512, 4(%esp)
	movl	28(%ebp), %eax
	movl	%eax, (%esp)
	call	__ZNSt15regex_constantsanENS_15match_flag_typeES0_
	testl	%eax, %eax
	sete	%al
	testb	%al, %al
	je	L355
	leal	-44(%ebp), %eax
	movl	%eax, %ecx
	call	__ZNKSt7__cxx1114regex_iteratorIN9__gnu_cxx17__normal_iteratorIPKcNS_12basic_stringIcSt11char_traitsIcESaIcEEEEEcNS_12regex_traitsIcEEEptEv
	movl	%eax, %ecx
	call	__ZNKSt7__cxx1113match_resultsIN9__gnu_cxx17__normal_iteratorIPKcNS_12basic_stringIcSt11char_traitsIcESaIcEEEEESaINS_9sub_matchISA_EEEE6prefixEv
	movl	%eax, %ebx
	leal	-44(%ebp), %eax
	movl	%eax, %ecx
	call	__ZNKSt7__cxx1114regex_iteratorIN9__gnu_cxx17__normal_iteratorIPKcNS_12basic_stringIcSt11char_traitsIcESaIcEEEEEcNS_12regex_traitsIcEEEptEv
	movl	%eax, %ecx
	call	__ZNKSt7__cxx1113match_resultsIN9__gnu_cxx17__normal_iteratorIPKcNS_12basic_stringIcSt11char_traitsIcESaIcEEEEESaINS_9sub_matchISA_EEEE6prefixEv
	movl	%eax, %edx
	movl	8(%ebp), %eax
	movl	%eax, 8(%esp)
	movl	4(%ebx), %eax
	movl	%eax, 4(%esp)
	movl	(%edx), %eax
	movl	%eax, (%esp)
	call	__ZSt4copyIN9__gnu_cxx17__normal_iteratorIPKcNSt7__cxx1112basic_stringIcSt11char_traitsIcESaIcEEEEESt20back_insert_iteratorIS9_EET0_T_SE_SD_
	movl	%eax, 8(%ebp)
L355:
	movl	24(%ebp), %edx
	movl	-12(%ebp), %eax
	leal	(%edx,%eax), %ebx
	leal	-44(%ebp), %eax
	movl	%eax, %ecx
	call	__ZNKSt7__cxx1114regex_iteratorIN9__gnu_cxx17__normal_iteratorIPKcNS_12basic_stringIcSt11char_traitsIcESaIcEEEEEcNS_12regex_traitsIcEEEptEv
	movl	%eax, %edx
	movl	28(%ebp), %eax
	movl	%eax, 12(%esp)
	movl	%ebx, 8(%esp)
	movl	24(%ebp), %eax
	movl	%eax, 4(%esp)
	movl	8(%ebp), %eax
	movl	%eax, (%esp)
	movl	%edx, %ecx
	call	__ZNKSt7__cxx1113match_resultsIN9__gnu_cxx17__normal_iteratorIPKcNS_12basic_stringIcSt11char_traitsIcESaIcEEEEESaINS_9sub_matchISA_EEEE6formatISt20back_insert_iteratorIS9_EEET_SI_S4_S4_NSt15regex_constants15match_flag_typeE
	subl	$16, %esp
	movl	%eax, 8(%ebp)
	leal	-44(%ebp), %eax
	movl	%eax, %ecx
	call	__ZNKSt7__cxx1114regex_iteratorIN9__gnu_cxx17__normal_iteratorIPKcNS_12basic_stringIcSt11char_traitsIcESaIcEEEEEcNS_12regex_traitsIcEEEptEv
	movl	%eax, %ecx
	call	__ZNKSt7__cxx1113match_resultsIN9__gnu_cxx17__normal_iteratorIPKcNS_12basic_stringIcSt11char_traitsIcESaIcEEEEESaINS_9sub_matchISA_EEEE6suffixEv
	movl	%eax, %edx
	leal	-88(%ebp), %eax
	movl	%edx, (%esp)
	movl	%eax, %ecx
	call	__ZNSt7__cxx119sub_matchIN9__gnu_cxx17__normal_iteratorIPKcNS_12basic_stringIcSt11char_traitsIcESaIcEEEEEEaSERKSB_
	subl	$4, %esp
	movl	$1024, 4(%esp)
	movl	28(%ebp), %eax
	movl	%eax, (%esp)
	call	__ZNSt15regex_constantsanENS_15match_flag_typeES0_
	testl	%eax, %eax
	setne	%al
	testb	%al, %al
	jne	L365
	leal	-44(%ebp), %eax
	movl	%eax, %ecx
	call	__ZNSt7__cxx1114regex_iteratorIN9__gnu_cxx17__normal_iteratorIPKcNS_12basic_stringIcSt11char_traitsIcESaIcEEEEEcNS_12regex_traitsIcEEEppEv
	jmp	L357
L365:
	nop
L354:
	movl	$512, 4(%esp)
	movl	28(%ebp), %eax
	movl	%eax, (%esp)
	call	__ZNSt15regex_constantsanENS_15match_flag_typeES0_
	testl	%eax, %eax
	sete	%al
	testb	%al, %al
	je	L353
	movl	8(%ebp), %eax
	movl	%eax, 8(%esp)
	movl	-84(%ebp), %eax
	movl	%eax, 4(%esp)
	movl	-88(%ebp), %eax
	movl	%eax, (%esp)
	call	__ZSt4copyIN9__gnu_cxx17__normal_iteratorIPKcNSt7__cxx1112basic_stringIcSt11char_traitsIcESaIcEEEEESt20back_insert_iteratorIS9_EET0_T_SE_SD_
LEHE39:
	movl	%eax, 8(%ebp)
L353:
	movl	8(%ebp), %ebx
	leal	-76(%ebp), %eax
	movl	%eax, %ecx
	call	__ZNSt7__cxx1114regex_iteratorIN9__gnu_cxx17__normal_iteratorIPKcNS_12basic_stringIcSt11char_traitsIcESaIcEEEEEcNS_12regex_traitsIcEEED1Ev
	leal	-44(%ebp), %eax
	movl	%eax, %ecx
	call	__ZNSt7__cxx1114regex_iteratorIN9__gnu_cxx17__normal_iteratorIPKcNS_12basic_stringIcSt11char_traitsIcESaIcEEEEEcNS_12regex_traitsIcEEED1Ev
	movl	%ebx, %eax
	jmp	L364
L363:
	movl	%eax, %ebx
	leal	-76(%ebp), %eax
	movl	%eax, %ecx
	call	__ZNSt7__cxx1114regex_iteratorIN9__gnu_cxx17__normal_iteratorIPKcNS_12basic_stringIcSt11char_traitsIcESaIcEEEEEcNS_12regex_traitsIcEEED1Ev
	jmp	L361
L362:
	movl	%eax, %ebx
L361:
	leal	-44(%ebp), %eax
	movl	%eax, %ecx
	call	__ZNSt7__cxx1114regex_iteratorIN9__gnu_cxx17__normal_iteratorIPKcNS_12basic_stringIcSt11char_traitsIcESaIcEEEEEcNS_12regex_traitsIcEEED1Ev
	movl	%ebx, %eax
	movl	%eax, (%esp)
LEHB40:
	call	__Unwind_Resume
LEHE40:
L364:
	movl	-4(%ebp), %ebx
	leave
	.cfi_restore 5
	.cfi_restore 3
	.cfi_def_cfa 4, 4
	ret
	.cfi_endproc
LFE5000:
	.section	.gcc_except_table,"w"
LLSDA5000:
	.byte	0xff
	.byte	0xff
	.byte	0x1
	.uleb128 LLSDACSE5000-LLSDACSB5000
LLSDACSB5000:
	.uleb128 LEHB37-LFB5000
	.uleb128 LEHE37-LEHB37
	.uleb128 0
	.uleb128 0
	.uleb128 LEHB38-LFB5000
	.uleb128 LEHE38-LEHB38
	.uleb128 L362-LFB5000
	.uleb128 0
	.uleb128 LEHB39-LFB5000
	.uleb128 LEHE39-LEHB39
	.uleb128 L363-LFB5000
	.uleb128 0
	.uleb128 LEHB40-LFB5000
	.uleb128 LEHE40-LEHB40
	.uleb128 0
	.uleb128 0
LLSDACSE5000:
	.section	.text$_ZSt13regex_replaceISt20back_insert_iteratorINSt7__cxx1112basic_stringIcSt11char_traitsIcESaIcEEEEN9__gnu_cxx17__normal_iteratorIPKcS6_EENS1_12regex_traitsIcEEcET_SF_T0_SG_RKNS1_11basic_regexIT2_T1_EEPKSI_NSt15regex_constants15match_flag_typeE,"x"
	.linkonce discard
	.section	.text$_ZSt19__iterator_categoryIN9__gnu_cxx17__normal_iteratorIPcNSt7__cxx1112basic_stringIcSt11char_traitsIcESaIcEEEEEENSt15iterator_traitsIT_E17iterator_categoryERKSB_,"x"
	.linkonce discard
	.globl	__ZSt19__iterator_categoryIN9__gnu_cxx17__normal_iteratorIPcNSt7__cxx1112basic_stringIcSt11char_traitsIcESaIcEEEEEENSt15iterator_traitsIT_E17iterator_categoryERKSB_
	.def	__ZSt19__iterator_categoryIN9__gnu_cxx17__normal_iteratorIPcNSt7__cxx1112basic_stringIcSt11char_traitsIcESaIcEEEEEENSt15iterator_traitsIT_E17iterator_categoryERKSB_;	.scl	2;	.type	32;	.endef
__ZSt19__iterator_categoryIN9__gnu_cxx17__normal_iteratorIPcNSt7__cxx1112basic_stringIcSt11char_traitsIcESaIcEEEEEENSt15iterator_traitsIT_E17iterator_categoryERKSB_:
LFB5018:
	.cfi_startproc
	pushl	%ebp
	.cfi_def_cfa_offset 8
	.cfi_offset 5, -8
	movl	%esp, %ebp
	.cfi_def_cfa_register 5
	popl	%ebp
	.cfi_restore 5
	.cfi_def_cfa 4, 4
	ret
	.cfi_endproc
LFE5018:
	.section	.text$_ZSt9__find_ifIN9__gnu_cxx17__normal_iteratorIPcNSt7__cxx1112basic_stringIcSt11char_traitsIcESaIcEEEEENS0_5__ops16_Iter_equals_valIKcEEET_SE_SE_T0_St26random_access_iterator_tag,"x"
	.linkonce discard
	.globl	__ZSt9__find_ifIN9__gnu_cxx17__normal_iteratorIPcNSt7__cxx1112basic_stringIcSt11char_traitsIcESaIcEEEEENS0_5__ops16_Iter_equals_valIKcEEET_SE_SE_T0_St26random_access_iterator_tag
	.def	__ZSt9__find_ifIN9__gnu_cxx17__normal_iteratorIPcNSt7__cxx1112basic_stringIcSt11char_traitsIcESaIcEEEEENS0_5__ops16_Iter_equals_valIKcEEET_SE_SE_T0_St26random_access_iterator_tag;	.scl	2;	.type	32;	.endef
__ZSt9__find_ifIN9__gnu_cxx17__normal_iteratorIPcNSt7__cxx1112basic_stringIcSt11char_traitsIcESaIcEEEEENS0_5__ops16_Iter_equals_valIKcEEET_SE_SE_T0_St26random_access_iterator_tag:
LFB5019:
	.cfi_startproc
	pushl	%ebp
	.cfi_def_cfa_offset 8
	.cfi_offset 5, -8
	movl	%esp, %ebp
	.cfi_def_cfa_register 5
	subl	$40, %esp
	leal	8(%ebp), %eax
	movl	%eax, 4(%esp)
	leal	12(%ebp), %eax
	movl	%eax, (%esp)
	call	__ZN9__gnu_cxxmiIPcNSt7__cxx1112basic_stringIcSt11char_traitsIcESaIcEEEEENS_17__normal_iteratorIT_T0_E15difference_typeERKSB_SE_
	sarl	$2, %eax
	movl	%eax, -12(%ebp)
L375:
	cmpl	$0, -12(%ebp)
	jle	L369
	leal	16(%ebp), %eax
	movl	8(%ebp), %edx
	movl	%edx, (%esp)
	movl	%eax, %ecx
	call	__ZN9__gnu_cxx5__ops16_Iter_equals_valIKcEclINS_17__normal_iteratorIPcNSt7__cxx1112basic_stringIcSt11char_traitsIcESaIcEEEEEEEbT_
	subl	$4, %esp
	testb	%al, %al
	je	L370
	movl	8(%ebp), %eax
	jmp	L371
L370:
	leal	8(%ebp), %ecx
	call	__ZN9__gnu_cxx17__normal_iteratorIPcNSt7__cxx1112basic_stringIcSt11char_traitsIcESaIcEEEEppEv
	leal	16(%ebp), %eax
	movl	8(%ebp), %edx
	movl	%edx, (%esp)
	movl	%eax, %ecx
	call	__ZN9__gnu_cxx5__ops16_Iter_equals_valIKcEclINS_17__normal_iteratorIPcNSt7__cxx1112basic_stringIcSt11char_traitsIcESaIcEEEEEEEbT_
	subl	$4, %esp
	testb	%al, %al
	je	L372
	movl	8(%ebp), %eax
	jmp	L371
L372:
	leal	8(%ebp), %ecx
	call	__ZN9__gnu_cxx17__normal_iteratorIPcNSt7__cxx1112basic_stringIcSt11char_traitsIcESaIcEEEEppEv
	leal	16(%ebp), %eax
	movl	8(%ebp), %edx
	movl	%edx, (%esp)
	movl	%eax, %ecx
	call	__ZN9__gnu_cxx5__ops16_Iter_equals_valIKcEclINS_17__normal_iteratorIPcNSt7__cxx1112basic_stringIcSt11char_traitsIcESaIcEEEEEEEbT_
	subl	$4, %esp
	testb	%al, %al
	je	L373
	movl	8(%ebp), %eax
	jmp	L371
L373:
	leal	8(%ebp), %ecx
	call	__ZN9__gnu_cxx17__normal_iteratorIPcNSt7__cxx1112basic_stringIcSt11char_traitsIcESaIcEEEEppEv
	leal	16(%ebp), %eax
	movl	8(%ebp), %edx
	movl	%edx, (%esp)
	movl	%eax, %ecx
	call	__ZN9__gnu_cxx5__ops16_Iter_equals_valIKcEclINS_17__normal_iteratorIPcNSt7__cxx1112basic_stringIcSt11char_traitsIcESaIcEEEEEEEbT_
	subl	$4, %esp
	testb	%al, %al
	je	L374
	movl	8(%ebp), %eax
	jmp	L371
L374:
	leal	8(%ebp), %ecx
	call	__ZN9__gnu_cxx17__normal_iteratorIPcNSt7__cxx1112basic_stringIcSt11char_traitsIcESaIcEEEEppEv
	subl	$1, -12(%ebp)
	jmp	L375
L369:
	leal	8(%ebp), %eax
	movl	%eax, 4(%esp)
	leal	12(%ebp), %eax
	movl	%eax, (%esp)
	call	__ZN9__gnu_cxxmiIPcNSt7__cxx1112basic_stringIcSt11char_traitsIcESaIcEEEEENS_17__normal_iteratorIT_T0_E15difference_typeERKSB_SE_
	cmpl	$2, %eax
	je	L377
	cmpl	$3, %eax
	je	L378
	cmpl	$1, %eax
	je	L379
	jmp	L376
L378:
	leal	16(%ebp), %eax
	movl	8(%ebp), %edx
	movl	%edx, (%esp)
	movl	%eax, %ecx
	call	__ZN9__gnu_cxx5__ops16_Iter_equals_valIKcEclINS_17__normal_iteratorIPcNSt7__cxx1112basic_stringIcSt11char_traitsIcESaIcEEEEEEEbT_
	subl	$4, %esp
	testb	%al, %al
	je	L380
	movl	8(%ebp), %eax
	jmp	L371
L380:
	leal	8(%ebp), %ecx
	call	__ZN9__gnu_cxx17__normal_iteratorIPcNSt7__cxx1112basic_stringIcSt11char_traitsIcESaIcEEEEppEv
L377:
	leal	16(%ebp), %eax
	movl	8(%ebp), %edx
	movl	%edx, (%esp)
	movl	%eax, %ecx
	call	__ZN9__gnu_cxx5__ops16_Iter_equals_valIKcEclINS_17__normal_iteratorIPcNSt7__cxx1112basic_stringIcSt11char_traitsIcESaIcEEEEEEEbT_
	subl	$4, %esp
	testb	%al, %al
	je	L381
	movl	8(%ebp), %eax
	jmp	L371
L381:
	leal	8(%ebp), %ecx
	call	__ZN9__gnu_cxx17__normal_iteratorIPcNSt7__cxx1112basic_stringIcSt11char_traitsIcESaIcEEEEppEv
L379:
	leal	16(%ebp), %eax
	movl	8(%ebp), %edx
	movl	%edx, (%esp)
	movl	%eax, %ecx
	call	__ZN9__gnu_cxx5__ops16_Iter_equals_valIKcEclINS_17__normal_iteratorIPcNSt7__cxx1112basic_stringIcSt11char_traitsIcESaIcEEEEEEEbT_
	subl	$4, %esp
	testb	%al, %al
	je	L382
	movl	8(%ebp), %eax
	jmp	L371
L382:
	leal	8(%ebp), %ecx
	call	__ZN9__gnu_cxx17__normal_iteratorIPcNSt7__cxx1112basic_stringIcSt11char_traitsIcESaIcEEEEppEv
L376:
	movl	12(%ebp), %eax
L371:
	leave
	.cfi_restore 5
	.cfi_def_cfa 4, 4
	ret
	.cfi_endproc
LFE5019:
	.section	.text$_ZNK9__gnu_cxx17__normal_iteratorIPKNSt7__cxx1112basic_stringIcSt11char_traitsIcESaIcEEESt6vectorIS6_SaIS6_EEE4baseEv,"x"
	.linkonce discard
	.align 2
	.globl	__ZNK9__gnu_cxx17__normal_iteratorIPKNSt7__cxx1112basic_stringIcSt11char_traitsIcESaIcEEESt6vectorIS6_SaIS6_EEE4baseEv
	.def	__ZNK9__gnu_cxx17__normal_iteratorIPKNSt7__cxx1112basic_stringIcSt11char_traitsIcESaIcEEESt6vectorIS6_SaIS6_EEE4baseEv;	.scl	2;	.type	32;	.endef
__ZNK9__gnu_cxx17__normal_iteratorIPKNSt7__cxx1112basic_stringIcSt11char_traitsIcESaIcEEESt6vectorIS6_SaIS6_EEE4baseEv:
LFB5022:
	.cfi_startproc
	pushl	%ebp
	.cfi_def_cfa_offset 8
	.cfi_offset 5, -8
	movl	%esp, %ebp
	.cfi_def_cfa_register 5
	subl	$4, %esp
	movl	%ecx, -4(%ebp)
	movl	-4(%ebp), %eax
	leave
	.cfi_restore 5
	.cfi_def_cfa 4, 4
	ret
	.cfi_endproc
LFE5022:
	.section	.text$_ZNSt12_Vector_baseINSt7__cxx1112basic_stringIcSt11char_traitsIcESaIcEEESaIS5_EE12_Vector_implC1Ev,"x"
	.linkonce discard
	.align 2
	.globl	__ZNSt12_Vector_baseINSt7__cxx1112basic_stringIcSt11char_traitsIcESaIcEEESaIS5_EE12_Vector_implC1Ev
	.def	__ZNSt12_Vector_baseINSt7__cxx1112basic_stringIcSt11char_traitsIcESaIcEEESaIS5_EE12_Vector_implC1Ev;	.scl	2;	.type	32;	.endef
__ZNSt12_Vector_baseINSt7__cxx1112basic_stringIcSt11char_traitsIcESaIcEEESaIS5_EE12_Vector_implC1Ev:
LFB5029:
	.cfi_startproc
	pushl	%ebp
	.cfi_def_cfa_offset 8
	.cfi_offset 5, -8
	movl	%esp, %ebp
	.cfi_def_cfa_register 5
	subl	$24, %esp
	movl	%ecx, -12(%ebp)
	movl	-12(%ebp), %eax
	movl	%eax, %ecx
	call	__ZNSaINSt7__cxx1112basic_stringIcSt11char_traitsIcESaIcEEEEC2Ev
	movl	-12(%ebp), %eax
	movl	$0, (%eax)
	movl	-12(%ebp), %eax
	movl	$0, 4(%eax)
	movl	-12(%ebp), %eax
	movl	$0, 8(%eax)
	nop
	leave
	.cfi_restore 5
	.cfi_def_cfa 4, 4
	ret
	.cfi_endproc
LFE5029:
	.section	.text$_ZNSt12_Vector_baseINSt7__cxx1112basic_stringIcSt11char_traitsIcESaIcEEESaIS5_EE13_M_deallocateEPS5_j,"x"
	.linkonce discard
	.align 2
	.globl	__ZNSt12_Vector_baseINSt7__cxx1112basic_stringIcSt11char_traitsIcESaIcEEESaIS5_EE13_M_deallocateEPS5_j
	.def	__ZNSt12_Vector_baseINSt7__cxx1112basic_stringIcSt11char_traitsIcESaIcEEESaIS5_EE13_M_deallocateEPS5_j;	.scl	2;	.type	32;	.endef
__ZNSt12_Vector_baseINSt7__cxx1112basic_stringIcSt11char_traitsIcESaIcEEESaIS5_EE13_M_deallocateEPS5_j:
LFB5030:
	.cfi_startproc
	pushl	%ebp
	.cfi_def_cfa_offset 8
	.cfi_offset 5, -8
	movl	%esp, %ebp
	.cfi_def_cfa_register 5
	subl	$40, %esp
	movl	%ecx, -12(%ebp)
	cmpl	$0, 8(%ebp)
	je	L388
	movl	-12(%ebp), %eax
	movl	12(%ebp), %edx
	movl	%edx, 8(%esp)
	movl	8(%ebp), %edx
	movl	%edx, 4(%esp)
	movl	%eax, (%esp)
	call	__ZNSt16allocator_traitsISaINSt7__cxx1112basic_stringIcSt11char_traitsIcESaIcEEEEE10deallocateERS6_PS5_j
L388:
	nop
	leave
	.cfi_restore 5
	.cfi_def_cfa 4, 4
	ret	$8
	.cfi_endproc
LFE5030:
	.section	.text$_ZSt8_DestroyIPNSt7__cxx1112basic_stringIcSt11char_traitsIcESaIcEEEEvT_S7_,"x"
	.linkonce discard
	.globl	__ZSt8_DestroyIPNSt7__cxx1112basic_stringIcSt11char_traitsIcESaIcEEEEvT_S7_
	.def	__ZSt8_DestroyIPNSt7__cxx1112basic_stringIcSt11char_traitsIcESaIcEEEEvT_S7_;	.scl	2;	.type	32;	.endef
__ZSt8_DestroyIPNSt7__cxx1112basic_stringIcSt11char_traitsIcESaIcEEEEvT_S7_:
LFB5031:
	.cfi_startproc
	pushl	%ebp
	.cfi_def_cfa_offset 8
	.cfi_offset 5, -8
	movl	%esp, %ebp
	.cfi_def_cfa_register 5
	subl	$24, %esp
	movl	12(%ebp), %eax
	movl	%eax, 4(%esp)
	movl	8(%ebp), %eax
	movl	%eax, (%esp)
	call	__ZNSt12_Destroy_auxILb0EE9__destroyIPNSt7__cxx1112basic_stringIcSt11char_traitsIcESaIcEEEEEvT_S9_
	nop
	leave
	.cfi_restore 5
	.cfi_def_cfa 4, 4
	ret
	.cfi_endproc
LFE5031:
	.section	.text$_ZN9__gnu_cxx13new_allocatorINSt7__cxx1112basic_stringIcSt11char_traitsIcESaIcEEEE9constructIS6_JRKS6_EEEvPT_DpOT0_,"x"
	.linkonce discard
	.align 2
	.globl	__ZN9__gnu_cxx13new_allocatorINSt7__cxx1112basic_stringIcSt11char_traitsIcESaIcEEEE9constructIS6_JRKS6_EEEvPT_DpOT0_
	.def	__ZN9__gnu_cxx13new_allocatorINSt7__cxx1112basic_stringIcSt11char_traitsIcESaIcEEEE9constructIS6_JRKS6_EEEvPT_DpOT0_;	.scl	2;	.type	32;	.endef
__ZN9__gnu_cxx13new_allocatorINSt7__cxx1112basic_stringIcSt11char_traitsIcESaIcEEEE9constructIS6_JRKS6_EEEvPT_DpOT0_:
LFB5037:
	.cfi_startproc
	.cfi_personality 0,___gxx_personality_v0
	.cfi_lsda 0,LLSDA5037
	pushl	%ebp
	.cfi_def_cfa_offset 8
	.cfi_offset 5, -8
	movl	%esp, %ebp
	.cfi_def_cfa_register 5
	pushl	%edi
	pushl	%esi
	pushl	%ebx
	subl	$44, %esp
	.cfi_offset 7, -12
	.cfi_offset 6, -16
	.cfi_offset 3, -20
	movl	%ecx, -28(%ebp)
	movl	12(%ebp), %eax
	movl	%eax, (%esp)
	call	__ZSt7forwardIRKNSt7__cxx1112basic_stringIcSt11char_traitsIcESaIcEEEEOT_RNSt16remove_referenceIS8_E4typeE
	movl	%eax, %edi
	movl	8(%ebp), %esi
	movl	%esi, 4(%esp)
	movl	$24, (%esp)
	call	__ZnwjPv
	movl	%eax, %ebx
	testl	%ebx, %ebx
	je	L395
	movl	%edi, (%esp)
	movl	%ebx, %ecx
LEHB41:
	call	__ZNSt7__cxx1112basic_stringIcSt11char_traitsIcESaIcEEC1ERKS4_
LEHE41:
	subl	$4, %esp
	jmp	L395
L394:
	movl	%eax, %edi
	movl	%esi, 4(%esp)
	movl	%ebx, (%esp)
	call	__ZdlPvS_
	movl	%edi, %eax
	movl	%eax, (%esp)
LEHB42:
	call	__Unwind_Resume
LEHE42:
L395:
	nop
	leal	-12(%ebp), %esp
	popl	%ebx
	.cfi_restore 3
	popl	%esi
	.cfi_restore 6
	popl	%edi
	.cfi_restore 7
	popl	%ebp
	.cfi_restore 5
	.cfi_def_cfa 4, 4
	ret	$8
	.cfi_endproc
LFE5037:
	.section	.gcc_except_table,"w"
LLSDA5037:
	.byte	0xff
	.byte	0xff
	.byte	0x1
	.uleb128 LLSDACSE5037-LLSDACSB5037
LLSDACSB5037:
	.uleb128 LEHB41-LFB5037
	.uleb128 LEHE41-LEHB41
	.uleb128 L394-LFB5037
	.uleb128 0
	.uleb128 LEHB42-LFB5037
	.uleb128 LEHE42-LEHB42
	.uleb128 0
	.uleb128 0
LLSDACSE5037:
	.section	.text$_ZN9__gnu_cxx13new_allocatorINSt7__cxx1112basic_stringIcSt11char_traitsIcESaIcEEEE9constructIS6_JRKS6_EEEvPT_DpOT0_,"x"
	.linkonce discard
	.section	.text$_ZSt3maxIjERKT_S2_S2_,"x"
	.linkonce discard
	.globl	__ZSt3maxIjERKT_S2_S2_
	.def	__ZSt3maxIjERKT_S2_S2_;	.scl	2;	.type	32;	.endef
__ZSt3maxIjERKT_S2_S2_:
LFB5039:
	.cfi_startproc
	pushl	%ebp
	.cfi_def_cfa_offset 8
	.cfi_offset 5, -8
	movl	%esp, %ebp
	.cfi_def_cfa_register 5
	movl	8(%ebp), %eax
	movl	(%eax), %edx
	movl	12(%ebp), %eax
	movl	(%eax), %eax
	cmpl	%eax, %edx
	jnb	L397
	movl	12(%ebp), %eax
	jmp	L398
L397:
	movl	8(%ebp), %eax
L398:
	popl	%ebp
	.cfi_restore 5
	.cfi_def_cfa 4, 4
	ret
	.cfi_endproc
LFE5039:
	.section	.text$_ZNKSt6vectorINSt7__cxx1112basic_stringIcSt11char_traitsIcESaIcEEESaIS5_EE12_M_check_lenEjPKc,"x"
	.linkonce discard
	.align 2
	.globl	__ZNKSt6vectorINSt7__cxx1112basic_stringIcSt11char_traitsIcESaIcEEESaIS5_EE12_M_check_lenEjPKc
	.def	__ZNKSt6vectorINSt7__cxx1112basic_stringIcSt11char_traitsIcESaIcEEESaIS5_EE12_M_check_lenEjPKc;	.scl	2;	.type	32;	.endef
__ZNKSt6vectorINSt7__cxx1112basic_stringIcSt11char_traitsIcESaIcEEESaIS5_EE12_M_check_lenEjPKc:
LFB5038:
	.cfi_startproc
	pushl	%ebp
	.cfi_def_cfa_offset 8
	.cfi_offset 5, -8
	movl	%esp, %ebp
	.cfi_def_cfa_register 5
	pushl	%ebx
	subl	$52, %esp
	.cfi_offset 3, -12
	movl	%ecx, -28(%ebp)
	movl	-28(%ebp), %eax
	movl	%eax, %ecx
	call	__ZNKSt6vectorINSt7__cxx1112basic_stringIcSt11char_traitsIcESaIcEEESaIS5_EE8max_sizeEv
	movl	%eax, %ebx
	movl	-28(%ebp), %eax
	movl	%eax, %ecx
	call	__ZNKSt6vectorINSt7__cxx1112basic_stringIcSt11char_traitsIcESaIcEEESaIS5_EE4sizeEv
	movl	%ebx, %edx
	subl	%eax, %edx
	movl	8(%ebp), %eax
	cmpl	%eax, %edx
	setb	%al
	testb	%al, %al
	je	L400
	movl	12(%ebp), %eax
	movl	%eax, (%esp)
	call	__ZSt20__throw_length_errorPKc
L400:
	movl	-28(%ebp), %eax
	movl	%eax, %ecx
	call	__ZNKSt6vectorINSt7__cxx1112basic_stringIcSt11char_traitsIcESaIcEEESaIS5_EE4sizeEv
	movl	%eax, %ebx
	movl	-28(%ebp), %eax
	movl	%eax, %ecx
	call	__ZNKSt6vectorINSt7__cxx1112basic_stringIcSt11char_traitsIcESaIcEEESaIS5_EE4sizeEv
	movl	%eax, -16(%ebp)
	leal	8(%ebp), %eax
	movl	%eax, 4(%esp)
	leal	-16(%ebp), %eax
	movl	%eax, (%esp)
	call	__ZSt3maxIjERKT_S2_S2_
	movl	(%eax), %eax
	addl	%ebx, %eax
	movl	%eax, -12(%ebp)
	movl	-28(%ebp), %eax
	movl	%eax, %ecx
	call	__ZNKSt6vectorINSt7__cxx1112basic_stringIcSt11char_traitsIcESaIcEEESaIS5_EE4sizeEv
	cmpl	-12(%ebp), %eax
	ja	L401
	movl	-28(%ebp), %eax
	movl	%eax, %ecx
	call	__ZNKSt6vectorINSt7__cxx1112basic_stringIcSt11char_traitsIcESaIcEEESaIS5_EE8max_sizeEv
	cmpl	-12(%ebp), %eax
	jnb	L402
L401:
	movl	-28(%ebp), %eax
	movl	%eax, %ecx
	call	__ZNKSt6vectorINSt7__cxx1112basic_stringIcSt11char_traitsIcESaIcEEESaIS5_EE8max_sizeEv
	jmp	L403
L402:
	movl	-12(%ebp), %eax
L403:
	addl	$52, %esp
	popl	%ebx
	.cfi_restore 3
	popl	%ebp
	.cfi_restore 5
	.cfi_def_cfa 4, 4
	ret	$8
	.cfi_endproc
LFE5038:
	.section	.text$_ZNSt12_Vector_baseINSt7__cxx1112basic_stringIcSt11char_traitsIcESaIcEEESaIS5_EE11_M_allocateEj,"x"
	.linkonce discard
	.align 2
	.globl	__ZNSt12_Vector_baseINSt7__cxx1112basic_stringIcSt11char_traitsIcESaIcEEESaIS5_EE11_M_allocateEj
	.def	__ZNSt12_Vector_baseINSt7__cxx1112basic_stringIcSt11char_traitsIcESaIcEEESaIS5_EE11_M_allocateEj;	.scl	2;	.type	32;	.endef
__ZNSt12_Vector_baseINSt7__cxx1112basic_stringIcSt11char_traitsIcESaIcEEESaIS5_EE11_M_allocateEj:
LFB5040:
	.cfi_startproc
	pushl	%ebp
	.cfi_def_cfa_offset 8
	.cfi_offset 5, -8
	movl	%esp, %ebp
	.cfi_def_cfa_register 5
	subl	$40, %esp
	movl	%ecx, -12(%ebp)
	cmpl	$0, 8(%ebp)
	je	L406
	movl	-12(%ebp), %eax
	movl	8(%ebp), %edx
	movl	%edx, 4(%esp)
	movl	%eax, (%esp)
	call	__ZNSt16allocator_traitsISaINSt7__cxx1112basic_stringIcSt11char_traitsIcESaIcEEEEE8allocateERS6_j
	jmp	L408
L406:
	movl	$0, %eax
L408:
	leave
	.cfi_restore 5
	.cfi_def_cfa 4, 4
	ret	$4
	.cfi_endproc
LFE5040:
	.section	.text$_ZSt34__uninitialized_move_if_noexcept_aIPNSt7__cxx1112basic_stringIcSt11char_traitsIcESaIcEEES6_SaIS5_EET0_T_S9_S8_RT1_,"x"
	.linkonce discard
	.globl	__ZSt34__uninitialized_move_if_noexcept_aIPNSt7__cxx1112basic_stringIcSt11char_traitsIcESaIcEEES6_SaIS5_EET0_T_S9_S8_RT1_
	.def	__ZSt34__uninitialized_move_if_noexcept_aIPNSt7__cxx1112basic_stringIcSt11char_traitsIcESaIcEEES6_SaIS5_EET0_T_S9_S8_RT1_;	.scl	2;	.type	32;	.endef
__ZSt34__uninitialized_move_if_noexcept_aIPNSt7__cxx1112basic_stringIcSt11char_traitsIcESaIcEEES6_SaIS5_EET0_T_S9_S8_RT1_:
LFB5041:
	.cfi_startproc
	pushl	%ebp
	.cfi_def_cfa_offset 8
	.cfi_offset 5, -8
	movl	%esp, %ebp
	.cfi_def_cfa_register 5
	pushl	%ebx
	subl	$20, %esp
	.cfi_offset 3, -12
	movl	12(%ebp), %eax
	movl	%eax, (%esp)
	call	__ZSt32__make_move_if_noexcept_iteratorINSt7__cxx1112basic_stringIcSt11char_traitsIcESaIcEEESt13move_iteratorIPS5_EET0_PT_
	movl	%eax, %ebx
	movl	8(%ebp), %eax
	movl	%eax, (%esp)
	call	__ZSt32__make_move_if_noexcept_iteratorINSt7__cxx1112basic_stringIcSt11char_traitsIcESaIcEEESt13move_iteratorIPS5_EET0_PT_
	movl	%eax, %edx
	movl	20(%ebp), %eax
	movl	%eax, 12(%esp)
	movl	16(%ebp), %eax
	movl	%eax, 8(%esp)
	movl	%ebx, 4(%esp)
	movl	%edx, (%esp)
	call	__ZSt22__uninitialized_copy_aISt13move_iteratorIPNSt7__cxx1112basic_stringIcSt11char_traitsIcESaIcEEEES7_S6_ET0_T_SA_S9_RSaIT1_E
	addl	$20, %esp
	popl	%ebx
	.cfi_restore 3
	popl	%ebp
	.cfi_restore 5
	.cfi_def_cfa 4, 4
	ret
	.cfi_endproc
LFE5041:
	.section	.text$_ZNSt16allocator_traitsISaINSt7__cxx1112basic_stringIcSt11char_traitsIcESaIcEEEEE7destroyIS5_EEvRS6_PT_,"x"
	.linkonce discard
	.globl	__ZNSt16allocator_traitsISaINSt7__cxx1112basic_stringIcSt11char_traitsIcESaIcEEEEE7destroyIS5_EEvRS6_PT_
	.def	__ZNSt16allocator_traitsISaINSt7__cxx1112basic_stringIcSt11char_traitsIcESaIcEEEEE7destroyIS5_EEvRS6_PT_;	.scl	2;	.type	32;	.endef
__ZNSt16allocator_traitsISaINSt7__cxx1112basic_stringIcSt11char_traitsIcESaIcEEEEE7destroyIS5_EEvRS6_PT_:
LFB5042:
	.cfi_startproc
	pushl	%ebp
	.cfi_def_cfa_offset 8
	.cfi_offset 5, -8
	movl	%esp, %ebp
	.cfi_def_cfa_register 5
	subl	$24, %esp
	movl	12(%ebp), %eax
	movl	%eax, (%esp)
	movl	8(%ebp), %ecx
	call	__ZN9__gnu_cxx13new_allocatorINSt7__cxx1112basic_stringIcSt11char_traitsIcESaIcEEEE7destroyIS6_EEvPT_
	subl	$4, %esp
	nop
	leave
	.cfi_restore 5
	.cfi_def_cfa 4, 4
	ret
	.cfi_endproc
LFE5042:
	.section	.text$_ZNSt12_Vector_baseINSt7__cxx1112basic_stringIcSt11char_traitsIcESaIcEEESaIS5_EE12_Vector_implC1ERKS6_,"x"
	.linkonce discard
	.align 2
	.globl	__ZNSt12_Vector_baseINSt7__cxx1112basic_stringIcSt11char_traitsIcESaIcEEESaIS5_EE12_Vector_implC1ERKS6_
	.def	__ZNSt12_Vector_baseINSt7__cxx1112basic_stringIcSt11char_traitsIcESaIcEEESaIS5_EE12_Vector_implC1ERKS6_;	.scl	2;	.type	32;	.endef
__ZNSt12_Vector_baseINSt7__cxx1112basic_stringIcSt11char_traitsIcESaIcEEESaIS5_EE12_Vector_implC1ERKS6_:
LFB5045:
	.cfi_startproc
	pushl	%ebp
	.cfi_def_cfa_offset 8
	.cfi_offset 5, -8
	movl	%esp, %ebp
	.cfi_def_cfa_register 5
	subl	$40, %esp
	movl	%ecx, -12(%ebp)
	movl	-12(%ebp), %eax
	movl	8(%ebp), %edx
	movl	%edx, (%esp)
	movl	%eax, %ecx
	call	__ZNSaINSt7__cxx1112basic_stringIcSt11char_traitsIcESaIcEEEEC2ERKS5_
	subl	$4, %esp
	movl	-12(%ebp), %eax
	movl	$0, (%eax)
	movl	-12(%ebp), %eax
	movl	$0, 4(%eax)
	movl	-12(%ebp), %eax
	movl	$0, 8(%eax)
	nop
	leave
	.cfi_restore 5
	.cfi_def_cfa 4, 4
	ret	$4
	.cfi_endproc
LFE5045:
	.section	.text$_ZNSt12_Vector_baseINSt7__cxx1112basic_stringIcSt11char_traitsIcESaIcEEESaIS5_EE17_M_create_storageEj,"x"
	.linkonce discard
	.align 2
	.globl	__ZNSt12_Vector_baseINSt7__cxx1112basic_stringIcSt11char_traitsIcESaIcEEESaIS5_EE17_M_create_storageEj
	.def	__ZNSt12_Vector_baseINSt7__cxx1112basic_stringIcSt11char_traitsIcESaIcEEESaIS5_EE17_M_create_storageEj;	.scl	2;	.type	32;	.endef
__ZNSt12_Vector_baseINSt7__cxx1112basic_stringIcSt11char_traitsIcESaIcEEESaIS5_EE17_M_create_storageEj:
LFB5046:
	.cfi_startproc
	pushl	%ebp
	.cfi_def_cfa_offset 8
	.cfi_offset 5, -8
	movl	%esp, %ebp
	.cfi_def_cfa_register 5
	subl	$40, %esp
	movl	%ecx, -12(%ebp)
	movl	-12(%ebp), %eax
	movl	8(%ebp), %edx
	movl	%edx, (%esp)
	movl	%eax, %ecx
	call	__ZNSt12_Vector_baseINSt7__cxx1112basic_stringIcSt11char_traitsIcESaIcEEESaIS5_EE11_M_allocateEj
	subl	$4, %esp
	movl	%eax, %edx
	movl	-12(%ebp), %eax
	movl	%edx, (%eax)
	movl	-12(%ebp), %eax
	movl	(%eax), %edx
	movl	-12(%ebp), %eax
	movl	%edx, 4(%eax)
	movl	-12(%ebp), %eax
	movl	(%eax), %ecx
	movl	8(%ebp), %edx
	movl	%edx, %eax
	addl	%eax, %eax
	addl	%edx, %eax
	sall	$3, %eax
	leal	(%ecx,%eax), %edx
	movl	-12(%ebp), %eax
	movl	%edx, 8(%eax)
	nop
	leave
	.cfi_restore 5
	.cfi_def_cfa 4, 4
	ret	$4
	.cfi_endproc
LFE5046:
	.section	.text$_ZSt27__uninitialized_default_n_aIPNSt7__cxx1112basic_stringIcSt11char_traitsIcESaIcEEEjS5_ET_S7_T0_RSaIT1_E,"x"
	.linkonce discard
	.globl	__ZSt27__uninitialized_default_n_aIPNSt7__cxx1112basic_stringIcSt11char_traitsIcESaIcEEEjS5_ET_S7_T0_RSaIT1_E
	.def	__ZSt27__uninitialized_default_n_aIPNSt7__cxx1112basic_stringIcSt11char_traitsIcESaIcEEEjS5_ET_S7_T0_RSaIT1_E;	.scl	2;	.type	32;	.endef
__ZSt27__uninitialized_default_n_aIPNSt7__cxx1112basic_stringIcSt11char_traitsIcESaIcEEEjS5_ET_S7_T0_RSaIT1_E:
LFB5047:
	.cfi_startproc
	pushl	%ebp
	.cfi_def_cfa_offset 8
	.cfi_offset 5, -8
	movl	%esp, %ebp
	.cfi_def_cfa_register 5
	subl	$24, %esp
	movl	12(%ebp), %eax
	movl	%eax, 4(%esp)
	movl	8(%ebp), %eax
	movl	%eax, (%esp)
	call	__ZSt25__uninitialized_default_nIPNSt7__cxx1112basic_stringIcSt11char_traitsIcESaIcEEEjET_S7_T0_
	leave
	.cfi_restore 5
	.cfi_def_cfa 4, 4
	ret
	.cfi_endproc
LFE5047:
	.section	.text$_ZNSt16allocator_traitsISaIcEE10deallocateERS0_Pcj,"x"
	.linkonce discard
	.globl	__ZNSt16allocator_traitsISaIcEE10deallocateERS0_Pcj
	.def	__ZNSt16allocator_traitsISaIcEE10deallocateERS0_Pcj;	.scl	2;	.type	32;	.endef
__ZNSt16allocator_traitsISaIcEE10deallocateERS0_Pcj:
LFB5048:
	.cfi_startproc
	pushl	%ebp
	.cfi_def_cfa_offset 8
	.cfi_offset 5, -8
	movl	%esp, %ebp
	.cfi_def_cfa_register 5
	subl	$24, %esp
	movl	16(%ebp), %eax
	movl	%eax, 4(%esp)
	movl	12(%ebp), %eax
	movl	%eax, (%esp)
	movl	8(%ebp), %ecx
	call	__ZN9__gnu_cxx13new_allocatorIcE10deallocateEPcj
	subl	$8, %esp
	nop
	leave
	.cfi_restore 5
	.cfi_def_cfa 4, 4
	ret
	.cfi_endproc
LFE5048:
	.section	.text$_ZNSaIjEC2Ev,"x"
	.linkonce discard
	.align 2
	.globl	__ZNSaIjEC2Ev
	.def	__ZNSaIjEC2Ev;	.scl	2;	.type	32;	.endef
__ZNSaIjEC2Ev:
LFB5078:
	.cfi_startproc
	pushl	%ebp
	.cfi_def_cfa_offset 8
	.cfi_offset 5, -8
	movl	%esp, %ebp
	.cfi_def_cfa_register 5
	subl	$24, %esp
	movl	%ecx, -12(%ebp)
	movl	-12(%ebp), %eax
	movl	%eax, %ecx
	call	__ZN9__gnu_cxx13new_allocatorIjEC2Ev
	nop
	leave
	.cfi_restore 5
	.cfi_def_cfa 4, 4
	ret
	.cfi_endproc
LFE5078:
	.section	.text$_ZN9__gnu_cxx13new_allocatorIjED2Ev,"x"
	.linkonce discard
	.align 2
	.globl	__ZN9__gnu_cxx13new_allocatorIjED2Ev
	.def	__ZN9__gnu_cxx13new_allocatorIjED2Ev;	.scl	2;	.type	32;	.endef
__ZN9__gnu_cxx13new_allocatorIjED2Ev:
LFB5081:
	.cfi_startproc
	pushl	%ebp
	.cfi_def_cfa_offset 8
	.cfi_offset 5, -8
	movl	%esp, %ebp
	.cfi_def_cfa_register 5
	subl	$4, %esp
	movl	%ecx, -4(%ebp)
	nop
	leave
	.cfi_restore 5
	.cfi_def_cfa 4, 4
	ret
	.cfi_endproc
LFE5081:
	.section	.text$_ZNSt16allocator_traitsISaIjEE10deallocateERS0_Pjj,"x"
	.linkonce discard
	.globl	__ZNSt16allocator_traitsISaIjEE10deallocateERS0_Pjj
	.def	__ZNSt16allocator_traitsISaIjEE10deallocateERS0_Pjj;	.scl	2;	.type	32;	.endef
__ZNSt16allocator_traitsISaIjEE10deallocateERS0_Pjj:
LFB5083:
	.cfi_startproc
	pushl	%ebp
	.cfi_def_cfa_offset 8
	.cfi_offset 5, -8
	movl	%esp, %ebp
	.cfi_def_cfa_register 5
	subl	$24, %esp
	movl	16(%ebp), %eax
	movl	%eax, 4(%esp)
	movl	12(%ebp), %eax
	movl	%eax, (%esp)
	movl	8(%ebp), %ecx
	call	__ZN9__gnu_cxx13new_allocatorIjE10deallocateEPjj
	subl	$8, %esp
	nop
	leave
	.cfi_restore 5
	.cfi_def_cfa 4, 4
	ret
	.cfi_endproc
LFE5083:
	.section	.text$_ZNSt12_Destroy_auxILb1EE9__destroyIPjEEvT_S3_,"x"
	.linkonce discard
	.globl	__ZNSt12_Destroy_auxILb1EE9__destroyIPjEEvT_S3_
	.def	__ZNSt12_Destroy_auxILb1EE9__destroyIPjEEvT_S3_;	.scl	2;	.type	32;	.endef
__ZNSt12_Destroy_auxILb1EE9__destroyIPjEEvT_S3_:
LFB5084:
	.cfi_startproc
	pushl	%ebp
	.cfi_def_cfa_offset 8
	.cfi_offset 5, -8
	movl	%esp, %ebp
	.cfi_def_cfa_register 5
	nop
	popl	%ebp
	.cfi_restore 5
	.cfi_def_cfa 4, 4
	ret
	.cfi_endproc
LFE5084:
	.section	.text$_ZNK9__gnu_cxx17__normal_iteratorIPKcNSt7__cxx1112basic_stringIcSt11char_traitsIcESaIcEEEE4baseEv,"x"
	.linkonce discard
	.align 2
	.globl	__ZNK9__gnu_cxx17__normal_iteratorIPKcNSt7__cxx1112basic_stringIcSt11char_traitsIcESaIcEEEE4baseEv
	.def	__ZNK9__gnu_cxx17__normal_iteratorIPKcNSt7__cxx1112basic_stringIcSt11char_traitsIcESaIcEEEE4baseEv;	.scl	2;	.type	32;	.endef
__ZNK9__gnu_cxx17__normal_iteratorIPKcNSt7__cxx1112basic_stringIcSt11char_traitsIcESaIcEEEE4baseEv:
LFB5085:
	.cfi_startproc
	pushl	%ebp
	.cfi_def_cfa_offset 8
	.cfi_offset 5, -8
	movl	%esp, %ebp
	.cfi_def_cfa_register 5
	subl	$4, %esp
	movl	%ecx, -4(%ebp)
	movl	-4(%ebp), %eax
	leave
	.cfi_restore 5
	.cfi_def_cfa 4, 4
	ret
	.cfi_endproc
LFE5085:
	.section	.text$_ZNK9__gnu_cxx17__normal_iteratorIPKcNSt7__cxx1112basic_stringIcSt11char_traitsIcESaIcEEEEdeEv,"x"
	.linkonce discard
	.align 2
	.globl	__ZNK9__gnu_cxx17__normal_iteratorIPKcNSt7__cxx1112basic_stringIcSt11char_traitsIcESaIcEEEEdeEv
	.def	__ZNK9__gnu_cxx17__normal_iteratorIPKcNSt7__cxx1112basic_stringIcSt11char_traitsIcESaIcEEEEdeEv;	.scl	2;	.type	32;	.endef
__ZNK9__gnu_cxx17__normal_iteratorIPKcNSt7__cxx1112basic_stringIcSt11char_traitsIcESaIcEEEEdeEv:
LFB5086:
	.cfi_startproc
	pushl	%ebp
	.cfi_def_cfa_offset 8
	.cfi_offset 5, -8
	movl	%esp, %ebp
	.cfi_def_cfa_register 5
	subl	$4, %esp
	movl	%ecx, -4(%ebp)
	movl	-4(%ebp), %eax
	movl	(%eax), %eax
	leave
	.cfi_restore 5
	.cfi_def_cfa 4, 4
	ret
	.cfi_endproc
LFE5086:
	.section .rdata,"dr"
	.align 4
LC11:
	.ascii "basic_string::_M_construct null not valid\0"
	.section	.text$_ZNSt7__cxx1112basic_stringIcSt11char_traitsIcESaIcEE12_M_constructIPcEEvT_S7_St20forward_iterator_tag,"x"
	.linkonce discard
	.align 2
	.globl	__ZNSt7__cxx1112basic_stringIcSt11char_traitsIcESaIcEE12_M_constructIPcEEvT_S7_St20forward_iterator_tag
	.def	__ZNSt7__cxx1112basic_stringIcSt11char_traitsIcESaIcEE12_M_constructIPcEEvT_S7_St20forward_iterator_tag;	.scl	2;	.type	32;	.endef
__ZNSt7__cxx1112basic_stringIcSt11char_traitsIcESaIcEE12_M_constructIPcEEvT_S7_St20forward_iterator_tag:
LFB5087:
	.cfi_startproc
	.cfi_personality 0,___gxx_personality_v0
	.cfi_lsda 0,LLSDA5087
	pushl	%ebp
	.cfi_def_cfa_offset 8
	.cfi_offset 5, -8
	movl	%esp, %ebp
	.cfi_def_cfa_register 5
	pushl	%ebx
	subl	$52, %esp
	.cfi_offset 3, -12
	movl	%ecx, -28(%ebp)
	movl	8(%ebp), %eax
	movl	%eax, (%esp)
	call	__ZN9__gnu_cxx17__is_null_pointerIcEEbPT_
	testb	%al, %al
	je	L426
	movl	8(%ebp), %eax
	cmpl	12(%ebp), %eax
	je	L426
	movl	$1, %eax
	jmp	L427
L426:
	movl	$0, %eax
L427:
	testb	%al, %al
	je	L428
	movl	$LC11, (%esp)
LEHB43:
	call	__ZSt19__throw_logic_errorPKc
L428:
	movl	12(%ebp), %eax
	movl	%eax, 4(%esp)
	movl	8(%ebp), %eax
	movl	%eax, (%esp)
	call	__ZSt8distanceIPcENSt15iterator_traitsIT_E15difference_typeES2_S2_
	movl	%eax, -12(%ebp)
	movl	-12(%ebp), %eax
	cmpl	$15, %eax
	jbe	L429
	movl	-28(%ebp), %eax
	movl	$0, 4(%esp)
	leal	-12(%ebp), %edx
	movl	%edx, (%esp)
	movl	%eax, %ecx
	call	__ZNSt7__cxx1112basic_stringIcSt11char_traitsIcESaIcEE9_M_createERjj
	subl	$8, %esp
	movl	%eax, %edx
	movl	-28(%ebp), %eax
	movl	%edx, (%esp)
	movl	%eax, %ecx
	call	__ZNSt7__cxx1112basic_stringIcSt11char_traitsIcESaIcEE7_M_dataEPc
	subl	$4, %esp
	movl	-12(%ebp), %edx
	movl	-28(%ebp), %eax
	movl	%edx, (%esp)
	movl	%eax, %ecx
	call	__ZNSt7__cxx1112basic_stringIcSt11char_traitsIcESaIcEE11_M_capacityEj
LEHE43:
	subl	$4, %esp
L429:
	movl	-28(%ebp), %eax
	movl	%eax, %ecx
LEHB44:
	call	__ZNKSt7__cxx1112basic_stringIcSt11char_traitsIcESaIcEE7_M_dataEv
LEHE44:
	movl	%eax, %edx
	movl	12(%ebp), %eax
	movl	%eax, 8(%esp)
	movl	8(%ebp), %eax
	movl	%eax, 4(%esp)
	movl	%edx, (%esp)
	call	__ZNSt7__cxx1112basic_stringIcSt11char_traitsIcESaIcEE13_S_copy_charsEPcS5_S5_
	movl	-12(%ebp), %edx
	movl	-28(%ebp), %eax
	movl	%edx, (%esp)
	movl	%eax, %ecx
LEHB45:
	call	__ZNSt7__cxx1112basic_stringIcSt11char_traitsIcESaIcEE13_M_set_lengthEj
LEHE45:
	subl	$4, %esp
	jmp	L434
L432:
	movl	%eax, (%esp)
	call	___cxa_begin_catch
	movl	-28(%ebp), %eax
	movl	%eax, %ecx
LEHB46:
	call	__ZNSt7__cxx1112basic_stringIcSt11char_traitsIcESaIcEE10_M_disposeEv
	call	___cxa_rethrow
LEHE46:
L433:
	movl	%eax, %ebx
	call	___cxa_end_catch
	movl	%ebx, %eax
	movl	%eax, (%esp)
LEHB47:
	call	__Unwind_Resume
LEHE47:
L434:
	movl	-4(%ebp), %ebx
	leave
	.cfi_restore 5
	.cfi_restore 3
	.cfi_def_cfa 4, 4
	ret	$12
	.cfi_endproc
LFE5087:
	.section	.gcc_except_table,"w"
	.align 4
LLSDA5087:
	.byte	0xff
	.byte	0
	.uleb128 LLSDATT5087-LLSDATTD5087
LLSDATTD5087:
	.byte	0x1
	.uleb128 LLSDACSE5087-LLSDACSB5087
LLSDACSB5087:
	.uleb128 LEHB43-LFB5087
	.uleb128 LEHE43-LEHB43
	.uleb128 0
	.uleb128 0
	.uleb128 LEHB44-LFB5087
	.uleb128 LEHE44-LEHB44
	.uleb128 L432-LFB5087
	.uleb128 0x1
	.uleb128 LEHB45-LFB5087
	.uleb128 LEHE45-LEHB45
	.uleb128 0
	.uleb128 0
	.uleb128 LEHB46-LFB5087
	.uleb128 LEHE46-LEHB46
	.uleb128 L433-LFB5087
	.uleb128 0
	.uleb128 LEHB47-LFB5087
	.uleb128 LEHE47-LEHB47
	.uleb128 0
	.uleb128 0
LLSDACSE5087:
	.byte	0x1
	.byte	0
	.align 4
	.long	0
LLSDATT5087:
	.section	.text$_ZNSt7__cxx1112basic_stringIcSt11char_traitsIcESaIcEE12_M_constructIPcEEvT_S7_St20forward_iterator_tag,"x"
	.linkonce discard
	.section	.text$_ZNSt8__detail8_ScannerIcED1Ev,"x"
	.linkonce discard
	.align 2
	.globl	__ZNSt8__detail8_ScannerIcED1Ev
	.def	__ZNSt8__detail8_ScannerIcED1Ev;	.scl	2;	.type	32;	.endef
__ZNSt8__detail8_ScannerIcED1Ev:
LFB5096:
	.cfi_startproc
	pushl	%ebp
	.cfi_def_cfa_offset 8
	.cfi_offset 5, -8
	movl	%esp, %ebp
	.cfi_def_cfa_register 5
	subl	$24, %esp
	movl	%ecx, -12(%ebp)
	movl	-12(%ebp), %eax
	addl	$160, %eax
	movl	%eax, %ecx
	call	__ZNSt7__cxx1112basic_stringIcSt11char_traitsIcESaIcEED1Ev
	nop
	leave
	.cfi_restore 5
	.cfi_def_cfa 4, 4
	ret
	.cfi_endproc
LFE5096:
	.section	.text$_ZNSt12__shared_ptrINSt8__detail4_NFAINSt7__cxx1112regex_traitsIcEEEELN9__gnu_cxx12_Lock_policyE2EED2Ev,"x"
	.linkonce discard
	.align 2
	.globl	__ZNSt12__shared_ptrINSt8__detail4_NFAINSt7__cxx1112regex_traitsIcEEEELN9__gnu_cxx12_Lock_policyE2EED2Ev
	.def	__ZNSt12__shared_ptrINSt8__detail4_NFAINSt7__cxx1112regex_traitsIcEEEELN9__gnu_cxx12_Lock_policyE2EED2Ev;	.scl	2;	.type	32;	.endef
__ZNSt12__shared_ptrINSt8__detail4_NFAINSt7__cxx1112regex_traitsIcEEEELN9__gnu_cxx12_Lock_policyE2EED2Ev:
LFB5099:
	.cfi_startproc
	pushl	%ebp
	.cfi_def_cfa_offset 8
	.cfi_offset 5, -8
	movl	%esp, %ebp
	.cfi_def_cfa_register 5
	subl	$24, %esp
	movl	%ecx, -12(%ebp)
	movl	-12(%ebp), %eax
	addl	$4, %eax
	movl	%eax, %ecx
	call	__ZNSt14__shared_countILN9__gnu_cxx12_Lock_policyE2EED1Ev
	nop
	leave
	.cfi_restore 5
	.cfi_def_cfa 4, 4
	ret
	.cfi_endproc
LFE5099:
	.section	.text$_ZNSt10shared_ptrINSt8__detail4_NFAINSt7__cxx1112regex_traitsIcEEEEED1Ev,"x"
	.linkonce discard
	.align 2
	.globl	__ZNSt10shared_ptrINSt8__detail4_NFAINSt7__cxx1112regex_traitsIcEEEEED1Ev
	.def	__ZNSt10shared_ptrINSt8__detail4_NFAINSt7__cxx1112regex_traitsIcEEEEED1Ev;	.scl	2;	.type	32;	.endef
__ZNSt10shared_ptrINSt8__detail4_NFAINSt7__cxx1112regex_traitsIcEEEEED1Ev:
LFB5102:
	.cfi_startproc
	pushl	%ebp
	.cfi_def_cfa_offset 8
	.cfi_offset 5, -8
	movl	%esp, %ebp
	.cfi_def_cfa_register 5
	subl	$24, %esp
	movl	%ecx, -12(%ebp)
	movl	-12(%ebp), %eax
	movl	%eax, %ecx
	call	__ZNSt12__shared_ptrINSt8__detail4_NFAINSt7__cxx1112regex_traitsIcEEEELN9__gnu_cxx12_Lock_policyE2EED2Ev
	nop
	leave
	.cfi_restore 5
	.cfi_def_cfa 4, 4
	ret
	.cfi_endproc
LFE5102:
	.section	.text$_ZNSt5stackINSt8__detail9_StateSeqINSt7__cxx1112regex_traitsIcEEEESt5dequeIS5_SaIS5_EEED1Ev,"x"
	.linkonce discard
	.align 2
	.globl	__ZNSt5stackINSt8__detail9_StateSeqINSt7__cxx1112regex_traitsIcEEEESt5dequeIS5_SaIS5_EEED1Ev
	.def	__ZNSt5stackINSt8__detail9_StateSeqINSt7__cxx1112regex_traitsIcEEEESt5dequeIS5_SaIS5_EEED1Ev;	.scl	2;	.type	32;	.endef
__ZNSt5stackINSt8__detail9_StateSeqINSt7__cxx1112regex_traitsIcEEEESt5dequeIS5_SaIS5_EEED1Ev:
LFB5105:
	.cfi_startproc
	pushl	%ebp
	.cfi_def_cfa_offset 8
	.cfi_offset 5, -8
	movl	%esp, %ebp
	.cfi_def_cfa_register 5
	subl	$24, %esp
	movl	%ecx, -12(%ebp)
	movl	-12(%ebp), %eax
	movl	%eax, %ecx
	call	__ZNSt5dequeINSt8__detail9_StateSeqINSt7__cxx1112regex_traitsIcEEEESaIS5_EED1Ev
	nop
	leave
	.cfi_restore 5
	.cfi_def_cfa 4, 4
	ret
	.cfi_endproc
LFE5105:
	.section	.text$_ZNSt8__detail9_CompilerINSt7__cxx1112regex_traitsIcEEED1Ev,"x"
	.linkonce discard
	.align 2
	.globl	__ZNSt8__detail9_CompilerINSt7__cxx1112regex_traitsIcEEED1Ev
	.def	__ZNSt8__detail9_CompilerINSt7__cxx1112regex_traitsIcEEED1Ev;	.scl	2;	.type	32;	.endef
__ZNSt8__detail9_CompilerINSt7__cxx1112regex_traitsIcEEED1Ev:
LFB5107:
	.cfi_startproc
	pushl	%ebp
	.cfi_def_cfa_offset 8
	.cfi_offset 5, -8
	movl	%esp, %ebp
	.cfi_def_cfa_register 5
	subl	$24, %esp
	movl	%ecx, -12(%ebp)
	movl	-12(%ebp), %eax
	addl	$228, %eax
	movl	%eax, %ecx
	call	__ZNSt5stackINSt8__detail9_StateSeqINSt7__cxx1112regex_traitsIcEEEESt5dequeIS5_SaIS5_EEED1Ev
	movl	-12(%ebp), %eax
	addl	$204, %eax
	movl	%eax, %ecx
	call	__ZNSt7__cxx1112basic_stringIcSt11char_traitsIcESaIcEED1Ev
	movl	-12(%ebp), %eax
	addl	$196, %eax
	movl	%eax, %ecx
	call	__ZNSt10shared_ptrINSt8__detail4_NFAINSt7__cxx1112regex_traitsIcEEEEED1Ev
	movl	-12(%ebp), %eax
	addl	$4, %eax
	movl	%eax, %ecx
	call	__ZNSt8__detail8_ScannerIcED1Ev
	nop
	leave
	.cfi_restore 5
	.cfi_def_cfa 4, 4
	ret
	.cfi_endproc
LFE5107:
	.section	.text$_ZNSt8__detail13__compile_nfaIPKcNSt7__cxx1112regex_traitsIcEEEENSt9enable_ifIXsrNS_27__is_contiguous_normal_iterIT_EE5valueESt10shared_ptrIKNS_4_NFAIT0_EEEE4typeES8_S8_RKNSC_11locale_typeENSt15regex_constants18syntax_option_typeE,"x"
	.linkonce discard
	.globl	__ZNSt8__detail13__compile_nfaIPKcNSt7__cxx1112regex_traitsIcEEEENSt9enable_ifIXsrNS_27__is_contiguous_normal_iterIT_EE5valueESt10shared_ptrIKNS_4_NFAIT0_EEEE4typeES8_S8_RKNSC_11locale_typeENSt15regex_constants18syntax_option_typeE
	.def	__ZNSt8__detail13__compile_nfaIPKcNSt7__cxx1112regex_traitsIcEEEENSt9enable_ifIXsrNS_27__is_contiguous_normal_iterIT_EE5valueESt10shared_ptrIKNS_4_NFAIT0_EEEE4typeES8_S8_RKNSC_11locale_typeENSt15regex_constants18syntax_option_typeE;	.scl	2;	.type	32;	.endef
__ZNSt8__detail13__compile_nfaIPKcNSt7__cxx1112regex_traitsIcEEEENSt9enable_ifIXsrNS_27__is_contiguous_normal_iterIT_EE5valueESt10shared_ptrIKNS_4_NFAIT0_EEEE4typeES8_S8_RKNSC_11locale_typeENSt15regex_constants18syntax_option_typeE:
LFB5088:
	.cfi_startproc
	pushl	%ebp
	.cfi_def_cfa_offset 8
	.cfi_offset 5, -8
	movl	%esp, %ebp
	.cfi_def_cfa_register 5
	subl	$312, %esp
	movl	16(%ebp), %edx
	movl	12(%ebp), %eax
	subl	%eax, %edx
	movl	%edx, %eax
	movl	%eax, -12(%ebp)
	cmpl	$0, -12(%ebp)
	je	L441
	movl	12(%ebp), %eax
	movl	%eax, (%esp)
	call	__ZSt11__addressofIKcEPT_RS1_
	jmp	L442
L441:
	movl	$0, %eax
L442:
	movl	%eax, -16(%ebp)
	movl	-16(%ebp), %edx
	movl	-12(%ebp), %eax
	leal	(%edx,%eax), %ecx
	leal	-292(%ebp), %eax
	movl	24(%ebp), %edx
	movl	%edx, 12(%esp)
	movl	20(%ebp), %edx
	movl	%edx, 8(%esp)
	movl	%ecx, 4(%esp)
	movl	-16(%ebp), %edx
	movl	%edx, (%esp)
	movl	%eax, %ecx
	call	__ZNSt8__detail9_CompilerINSt7__cxx1112regex_traitsIcEEEC1EPKcS6_RKSt6localeNSt15regex_constants18syntax_option_typeE
	subl	$16, %esp
	movl	8(%ebp), %eax
	leal	-292(%ebp), %edx
	movl	%edx, (%esp)
	movl	%eax, %ecx
	call	__ZNSt8__detail9_CompilerINSt7__cxx1112regex_traitsIcEEE10_M_get_nfaEv
	subl	$4, %esp
	leal	-292(%ebp), %eax
	movl	%eax, %ecx
	call	__ZNSt8__detail9_CompilerINSt7__cxx1112regex_traitsIcEEED1Ev
	movl	8(%ebp), %eax
	leave
	.cfi_restore 5
	.cfi_def_cfa 4, 4
	ret
	.cfi_endproc
LFE5088:
	.section	.text$_ZNSt16_Sp_counted_baseILN9__gnu_cxx12_Lock_policyE2EE10_M_destroyEv,"x"
	.linkonce discard
	.align 2
	.globl	__ZNSt16_Sp_counted_baseILN9__gnu_cxx12_Lock_policyE2EE10_M_destroyEv
	.def	__ZNSt16_Sp_counted_baseILN9__gnu_cxx12_Lock_policyE2EE10_M_destroyEv;	.scl	2;	.type	32;	.endef
__ZNSt16_Sp_counted_baseILN9__gnu_cxx12_Lock_policyE2EE10_M_destroyEv:
LFB5112:
	.cfi_startproc
	pushl	%ebp
	.cfi_def_cfa_offset 8
	.cfi_offset 5, -8
	movl	%esp, %ebp
	.cfi_def_cfa_register 5
	subl	$24, %esp
	movl	%ecx, -12(%ebp)
	cmpl	$0, -12(%ebp)
	je	L446
	movl	-12(%ebp), %eax
	movl	(%eax), %eax
	addl	$4, %eax
	movl	(%eax), %eax
	movl	-12(%ebp), %edx
	movl	%edx, %ecx
	call	*%eax
L446:
	nop
	leave
	.cfi_restore 5
	.cfi_def_cfa 4, 4
	ret
	.cfi_endproc
LFE5112:
	.section	.text$_ZSt11__addressofINSt7__cxx1112basic_stringIcSt11char_traitsIcESaIcEEEEPT_RS6_,"x"
	.linkonce discard
	.globl	__ZSt11__addressofINSt7__cxx1112basic_stringIcSt11char_traitsIcESaIcEEEEPT_RS6_
	.def	__ZSt11__addressofINSt7__cxx1112basic_stringIcSt11char_traitsIcESaIcEEEEPT_RS6_;	.scl	2;	.type	32;	.endef
__ZSt11__addressofINSt7__cxx1112basic_stringIcSt11char_traitsIcESaIcEEEEPT_RS6_:
LFB5113:
	.cfi_startproc
	pushl	%ebp
	.cfi_def_cfa_offset 8
	.cfi_offset 5, -8
	movl	%esp, %ebp
	.cfi_def_cfa_register 5
	movl	8(%ebp), %eax
	popl	%ebp
	.cfi_restore 5
	.cfi_def_cfa 4, 4
	ret
	.cfi_endproc
LFE5113:
	.section	.text$_ZNSt7__cxx1113match_resultsIN9__gnu_cxx17__normal_iteratorIPKcNS_12basic_stringIcSt11char_traitsIcESaIcEEEEESaINS_9sub_matchISA_EEEEaSERKSE_,"x"
	.linkonce discard
	.align 2
	.globl	__ZNSt7__cxx1113match_resultsIN9__gnu_cxx17__normal_iteratorIPKcNS_12basic_stringIcSt11char_traitsIcESaIcEEEEESaINS_9sub_matchISA_EEEEaSERKSE_
	.def	__ZNSt7__cxx1113match_resultsIN9__gnu_cxx17__normal_iteratorIPKcNS_12basic_stringIcSt11char_traitsIcESaIcEEEEESaINS_9sub_matchISA_EEEEaSERKSE_;	.scl	2;	.type	32;	.endef
__ZNSt7__cxx1113match_resultsIN9__gnu_cxx17__normal_iteratorIPKcNS_12basic_stringIcSt11char_traitsIcESaIcEEEEESaINS_9sub_matchISA_EEEEaSERKSE_:
LFB5116:
	.cfi_startproc
	pushl	%ebp
	.cfi_def_cfa_offset 8
	.cfi_offset 5, -8
	movl	%esp, %ebp
	.cfi_def_cfa_register 5
	subl	$40, %esp
	movl	%ecx, -12(%ebp)
	movl	8(%ebp), %edx
	movl	-12(%ebp), %eax
	movl	%edx, (%esp)
	movl	%eax, %ecx
	call	__ZNSt6vectorINSt7__cxx119sub_matchIN9__gnu_cxx17__normal_iteratorIPKcNS0_12basic_stringIcSt11char_traitsIcESaIcEEEEEEESaISC_EEaSERKSE_
	subl	$4, %esp
	movl	-12(%ebp), %eax
	movl	8(%ebp), %edx
	movl	12(%edx), %edx
	movl	%edx, 12(%eax)
	movl	-12(%ebp), %eax
	leave
	.cfi_restore 5
	.cfi_def_cfa 4, 4
	ret	$4
	.cfi_endproc
LFE5116:
	.section	.text$_ZNSt7__cxx1114regex_iteratorIN9__gnu_cxx17__normal_iteratorIPKcNS_12basic_stringIcSt11char_traitsIcESaIcEEEEEcNS_12regex_traitsIcEEEaSERKSD_,"x"
	.linkonce discard
	.align 2
	.globl	__ZNSt7__cxx1114regex_iteratorIN9__gnu_cxx17__normal_iteratorIPKcNS_12basic_stringIcSt11char_traitsIcESaIcEEEEEcNS_12regex_traitsIcEEEaSERKSD_
	.def	__ZNSt7__cxx1114regex_iteratorIN9__gnu_cxx17__normal_iteratorIPKcNS_12basic_stringIcSt11char_traitsIcESaIcEEEEEcNS_12regex_traitsIcEEEaSERKSD_;	.scl	2;	.type	32;	.endef
__ZNSt7__cxx1114regex_iteratorIN9__gnu_cxx17__normal_iteratorIPKcNS_12basic_stringIcSt11char_traitsIcESaIcEEEEEcNS_12regex_traitsIcEEEaSERKSD_:
LFB5115:
	.cfi_startproc
	pushl	%ebp
	.cfi_def_cfa_offset 8
	.cfi_offset 5, -8
	movl	%esp, %ebp
	.cfi_def_cfa_register 5
	subl	$40, %esp
	movl	%ecx, -12(%ebp)
	movl	-12(%ebp), %eax
	movl	8(%ebp), %edx
	movl	(%edx), %edx
	movl	%edx, (%eax)
	movl	-12(%ebp), %eax
	movl	8(%ebp), %edx
	movl	4(%edx), %edx
	movl	%edx, 4(%eax)
	movl	8(%ebp), %eax
	movl	8(%eax), %edx
	movl	-12(%ebp), %eax
	movl	%edx, 8(%eax)
	movl	8(%ebp), %eax
	movl	12(%eax), %edx
	movl	-12(%ebp), %eax
	movl	%edx, 12(%eax)
	movl	8(%ebp), %eax
	leal	16(%eax), %edx
	movl	-12(%ebp), %eax
	addl	$16, %eax
	movl	%edx, (%esp)
	movl	%eax, %ecx
	call	__ZNSt7__cxx1113match_resultsIN9__gnu_cxx17__normal_iteratorIPKcNS_12basic_stringIcSt11char_traitsIcESaIcEEEEESaINS_9sub_matchISA_EEEEaSERKSE_
	subl	$4, %esp
	movl	-12(%ebp), %eax
	leave
	.cfi_restore 5
	.cfi_def_cfa 4, 4
	ret	$4
	.cfi_endproc
LFE5115:
	.section	.text$_ZNSt7__cxx1114regex_iteratorIN9__gnu_cxx17__normal_iteratorIPKcNS_12basic_stringIcSt11char_traitsIcESaIcEEEEEcNS_12regex_traitsIcEEEC1ESA_SA_RKNS_11basic_regexIcSC_EENSt15regex_constants15match_flag_typeE,"x"
	.linkonce discard
	.align 2
	.globl	__ZNSt7__cxx1114regex_iteratorIN9__gnu_cxx17__normal_iteratorIPKcNS_12basic_stringIcSt11char_traitsIcESaIcEEEEEcNS_12regex_traitsIcEEEC1ESA_SA_RKNS_11basic_regexIcSC_EENSt15regex_constants15match_flag_typeE
	.def	__ZNSt7__cxx1114regex_iteratorIN9__gnu_cxx17__normal_iteratorIPKcNS_12basic_stringIcSt11char_traitsIcESaIcEEEEEcNS_12regex_traitsIcEEEC1ESA_SA_RKNS_11basic_regexIcSC_EENSt15regex_constants15match_flag_typeE;	.scl	2;	.type	32;	.endef
__ZNSt7__cxx1114regex_iteratorIN9__gnu_cxx17__normal_iteratorIPKcNS_12basic_stringIcSt11char_traitsIcESaIcEEEEEcNS_12regex_traitsIcEEEC1ESA_SA_RKNS_11basic_regexIcSC_EENSt15regex_constants15match_flag_typeE:
LFB5118:
	.cfi_startproc
	.cfi_personality 0,___gxx_personality_v0
	.cfi_lsda 0,LLSDA5118
	pushl	%ebp
	.cfi_def_cfa_offset 8
	.cfi_offset 5, -8
	movl	%esp, %ebp
	.cfi_def_cfa_register 5
	pushl	%ebx
	subl	$100, %esp
	.cfi_offset 3, -12
	movl	%ecx, -60(%ebp)
	movl	-60(%ebp), %eax
	movl	8(%ebp), %edx
	movl	%edx, (%eax)
	movl	-60(%ebp), %eax
	movl	12(%ebp), %edx
	movl	%edx, 4(%eax)
	movl	-60(%ebp), %eax
	movl	16(%ebp), %edx
	movl	%edx, 8(%eax)
	movl	-60(%ebp), %eax
	movl	20(%ebp), %edx
	movl	%edx, 12(%eax)
	leal	-41(%ebp), %eax
	movl	%eax, %ecx
	call	__ZNSaINSt7__cxx119sub_matchIN9__gnu_cxx17__normal_iteratorIPKcNS_12basic_stringIcSt11char_traitsIcESaIcEEEEEEEEC1Ev
	movl	-60(%ebp), %eax
	leal	16(%eax), %edx
	leal	-41(%ebp), %eax
	movl	%eax, (%esp)
	movl	%edx, %ecx
	call	__ZNSt7__cxx1113match_resultsIN9__gnu_cxx17__normal_iteratorIPKcNS_12basic_stringIcSt11char_traitsIcESaIcEEEEESaINS_9sub_matchISA_EEEEC1ERKSD_
	subl	$4, %esp
	leal	-41(%ebp), %eax
	movl	%eax, %ecx
	call	__ZNSaINSt7__cxx119sub_matchIN9__gnu_cxx17__normal_iteratorIPKcNS_12basic_stringIcSt11char_traitsIcESaIcEEEEEEEED1Ev
	movl	-60(%ebp), %eax
	movl	12(%eax), %edx
	movl	-60(%ebp), %eax
	movl	8(%eax), %eax
	movl	-60(%ebp), %ecx
	addl	$16, %ecx
	movl	%edx, 16(%esp)
	movl	%eax, 12(%esp)
	movl	%ecx, 8(%esp)
	movl	-60(%ebp), %eax
	movl	4(%eax), %eax
	movl	%eax, 4(%esp)
	movl	-60(%ebp), %eax
	movl	(%eax), %eax
	movl	%eax, (%esp)
LEHB48:
	call	__ZSt12regex_searchIN9__gnu_cxx17__normal_iteratorIPKcNSt7__cxx1112basic_stringIcSt11char_traitsIcESaIcEEEEESaINS4_9sub_matchISA_EEEcNS4_12regex_traitsIcEEEbT_SG_RNS4_13match_resultsISG_T0_EERKNS4_11basic_regexIT1_T2_EENSt15regex_constants15match_flag_typeE
	xorl	$1, %eax
	testb	%al, %al
	je	L459
	leal	-40(%ebp), %eax
	movl	%eax, %ecx
	call	__ZNSt7__cxx1114regex_iteratorIN9__gnu_cxx17__normal_iteratorIPKcNS_12basic_stringIcSt11char_traitsIcESaIcEEEEEcNS_12regex_traitsIcEEEC1Ev
LEHE48:
	movl	-60(%ebp), %eax
	leal	-40(%ebp), %edx
	movl	%edx, (%esp)
	movl	%eax, %ecx
LEHB49:
	call	__ZNSt7__cxx1114regex_iteratorIN9__gnu_cxx17__normal_iteratorIPKcNS_12basic_stringIcSt11char_traitsIcESaIcEEEEEcNS_12regex_traitsIcEEEaSERKSD_
LEHE49:
	subl	$4, %esp
	leal	-40(%ebp), %eax
	movl	%eax, %ecx
	call	__ZNSt7__cxx1114regex_iteratorIN9__gnu_cxx17__normal_iteratorIPKcNS_12basic_stringIcSt11char_traitsIcESaIcEEEEEcNS_12regex_traitsIcEEED1Ev
	jmp	L459
L458:
	movl	%eax, %ebx
	leal	-40(%ebp), %eax
	movl	%eax, %ecx
	call	__ZNSt7__cxx1114regex_iteratorIN9__gnu_cxx17__normal_iteratorIPKcNS_12basic_stringIcSt11char_traitsIcESaIcEEEEEcNS_12regex_traitsIcEEED1Ev
	jmp	L456
L457:
	movl	%eax, %ebx
L456:
	movl	-60(%ebp), %eax
	addl	$16, %eax
	movl	%eax, %ecx
	call	__ZNSt7__cxx1113match_resultsIN9__gnu_cxx17__normal_iteratorIPKcNS_12basic_stringIcSt11char_traitsIcESaIcEEEEESaINS_9sub_matchISA_EEEED1Ev
	movl	%ebx, %eax
	movl	%eax, (%esp)
LEHB50:
	call	__Unwind_Resume
LEHE50:
L459:
	nop
	movl	-4(%ebp), %ebx
	leave
	.cfi_restore 5
	.cfi_restore 3
	.cfi_def_cfa 4, 4
	ret	$16
	.cfi_endproc
LFE5118:
	.section	.gcc_except_table,"w"
LLSDA5118:
	.byte	0xff
	.byte	0xff
	.byte	0x1
	.uleb128 LLSDACSE5118-LLSDACSB5118
LLSDACSB5118:
	.uleb128 LEHB48-LFB5118
	.uleb128 LEHE48-LEHB48
	.uleb128 L457-LFB5118
	.uleb128 0
	.uleb128 LEHB49-LFB5118
	.uleb128 LEHE49-LEHB49
	.uleb128 L458-LFB5118
	.uleb128 0
	.uleb128 LEHB50-LFB5118
	.uleb128 LEHE50-LEHB50
	.uleb128 0
	.uleb128 0
LLSDACSE5118:
	.section	.text$_ZNSt7__cxx1114regex_iteratorIN9__gnu_cxx17__normal_iteratorIPKcNS_12basic_stringIcSt11char_traitsIcESaIcEEEEEcNS_12regex_traitsIcEEEC1ESA_SA_RKNS_11basic_regexIcSC_EENSt15regex_constants15match_flag_typeE,"x"
	.linkonce discard
	.section	.text$_ZNSt7__cxx1113match_resultsIN9__gnu_cxx17__normal_iteratorIPKcNS_12basic_stringIcSt11char_traitsIcESaIcEEEEESaINS_9sub_matchISA_EEEED1Ev,"x"
	.linkonce discard
	.align 2
	.globl	__ZNSt7__cxx1113match_resultsIN9__gnu_cxx17__normal_iteratorIPKcNS_12basic_stringIcSt11char_traitsIcESaIcEEEEESaINS_9sub_matchISA_EEEED1Ev
	.def	__ZNSt7__cxx1113match_resultsIN9__gnu_cxx17__normal_iteratorIPKcNS_12basic_stringIcSt11char_traitsIcESaIcEEEEESaINS_9sub_matchISA_EEEED1Ev;	.scl	2;	.type	32;	.endef
__ZNSt7__cxx1113match_resultsIN9__gnu_cxx17__normal_iteratorIPKcNS_12basic_stringIcSt11char_traitsIcESaIcEEEEESaINS_9sub_matchISA_EEEED1Ev:
LFB5121:
	.cfi_startproc
	pushl	%ebp
	.cfi_def_cfa_offset 8
	.cfi_offset 5, -8
	movl	%esp, %ebp
	.cfi_def_cfa_register 5
	subl	$24, %esp
	movl	%ecx, -12(%ebp)
	movl	-12(%ebp), %eax
	movl	%eax, %ecx
	call	__ZNSt6vectorINSt7__cxx119sub_matchIN9__gnu_cxx17__normal_iteratorIPKcNS0_12basic_stringIcSt11char_traitsIcESaIcEEEEEEESaISC_EED2Ev
	nop
	leave
	.cfi_restore 5
	.cfi_def_cfa 4, 4
	ret
	.cfi_endproc
LFE5121:
	.section	.text$_ZNSt7__cxx1114regex_iteratorIN9__gnu_cxx17__normal_iteratorIPKcNS_12basic_stringIcSt11char_traitsIcESaIcEEEEEcNS_12regex_traitsIcEEEC1Ev,"x"
	.linkonce discard
	.align 2
	.globl	__ZNSt7__cxx1114regex_iteratorIN9__gnu_cxx17__normal_iteratorIPKcNS_12basic_stringIcSt11char_traitsIcESaIcEEEEEcNS_12regex_traitsIcEEEC1Ev
	.def	__ZNSt7__cxx1114regex_iteratorIN9__gnu_cxx17__normal_iteratorIPKcNS_12basic_stringIcSt11char_traitsIcESaIcEEEEEcNS_12regex_traitsIcEEEC1Ev;	.scl	2;	.type	32;	.endef
__ZNSt7__cxx1114regex_iteratorIN9__gnu_cxx17__normal_iteratorIPKcNS_12basic_stringIcSt11char_traitsIcESaIcEEEEEcNS_12regex_traitsIcEEEC1Ev:
LFB5124:
	.cfi_startproc
	pushl	%ebp
	.cfi_def_cfa_offset 8
	.cfi_offset 5, -8
	movl	%esp, %ebp
	.cfi_def_cfa_register 5
	subl	$56, %esp
	movl	%ecx, -28(%ebp)
	movl	-28(%ebp), %eax
	movl	%eax, %ecx
	call	__ZN9__gnu_cxx17__normal_iteratorIPKcNSt7__cxx1112basic_stringIcSt11char_traitsIcESaIcEEEEC1Ev
	movl	-28(%ebp), %eax
	addl	$4, %eax
	movl	%eax, %ecx
	call	__ZN9__gnu_cxx17__normal_iteratorIPKcNSt7__cxx1112basic_stringIcSt11char_traitsIcESaIcEEEEC1Ev
	leal	-9(%ebp), %eax
	movl	%eax, %ecx
	call	__ZNSaINSt7__cxx119sub_matchIN9__gnu_cxx17__normal_iteratorIPKcNS_12basic_stringIcSt11char_traitsIcESaIcEEEEEEEEC1Ev
	movl	-28(%ebp), %eax
	leal	16(%eax), %edx
	leal	-9(%ebp), %eax
	movl	%eax, (%esp)
	movl	%edx, %ecx
	call	__ZNSt7__cxx1113match_resultsIN9__gnu_cxx17__normal_iteratorIPKcNS_12basic_stringIcSt11char_traitsIcESaIcEEEEESaINS_9sub_matchISA_EEEEC1ERKSD_
	subl	$4, %esp
	leal	-9(%ebp), %eax
	movl	%eax, %ecx
	call	__ZNSaINSt7__cxx119sub_matchIN9__gnu_cxx17__normal_iteratorIPKcNS_12basic_stringIcSt11char_traitsIcESaIcEEEEEEEED1Ev
	nop
	leave
	.cfi_restore 5
	.cfi_def_cfa 4, 4
	ret
	.cfi_endproc
LFE5124:
	.section	.text$_ZNKSt7__cxx1114regex_iteratorIN9__gnu_cxx17__normal_iteratorIPKcNS_12basic_stringIcSt11char_traitsIcESaIcEEEEEcNS_12regex_traitsIcEEEeqERKSD_,"x"
	.linkonce discard
	.align 2
	.globl	__ZNKSt7__cxx1114regex_iteratorIN9__gnu_cxx17__normal_iteratorIPKcNS_12basic_stringIcSt11char_traitsIcESaIcEEEEEcNS_12regex_traitsIcEEEeqERKSD_
	.def	__ZNKSt7__cxx1114regex_iteratorIN9__gnu_cxx17__normal_iteratorIPKcNS_12basic_stringIcSt11char_traitsIcESaIcEEEEEcNS_12regex_traitsIcEEEeqERKSD_;	.scl	2;	.type	32;	.endef
__ZNKSt7__cxx1114regex_iteratorIN9__gnu_cxx17__normal_iteratorIPKcNS_12basic_stringIcSt11char_traitsIcESaIcEEEEEcNS_12regex_traitsIcEEEeqERKSD_:
LFB5125:
	.cfi_startproc
	pushl	%ebp
	.cfi_def_cfa_offset 8
	.cfi_offset 5, -8
	movl	%esp, %ebp
	.cfi_def_cfa_register 5
	pushl	%ebx
	subl	$36, %esp
	.cfi_offset 3, -12
	movl	%ecx, -12(%ebp)
	movl	-12(%ebp), %eax
	addl	$16, %eax
	movl	%eax, %ecx
	call	__ZNKSt7__cxx1113match_resultsIN9__gnu_cxx17__normal_iteratorIPKcNS_12basic_stringIcSt11char_traitsIcESaIcEEEEESaINS_9sub_matchISA_EEEE5emptyEv
	testb	%al, %al
	je	L463
	movl	8(%ebp), %eax
	addl	$16, %eax
	movl	%eax, %ecx
	call	__ZNKSt7__cxx1113match_resultsIN9__gnu_cxx17__normal_iteratorIPKcNS_12basic_stringIcSt11char_traitsIcESaIcEEEEESaINS_9sub_matchISA_EEEE5emptyEv
	testb	%al, %al
	jne	L464
L463:
	movl	8(%ebp), %edx
	movl	-12(%ebp), %eax
	movl	%edx, 4(%esp)
	movl	%eax, (%esp)
	call	__ZN9__gnu_cxxeqIPKcNSt7__cxx1112basic_stringIcSt11char_traitsIcESaIcEEEEEbRKNS_17__normal_iteratorIT_T0_EESE_
	testb	%al, %al
	je	L465
	movl	8(%ebp), %eax
	leal	4(%eax), %edx
	movl	-12(%ebp), %eax
	addl	$4, %eax
	movl	%edx, 4(%esp)
	movl	%eax, (%esp)
	call	__ZN9__gnu_cxxeqIPKcNSt7__cxx1112basic_stringIcSt11char_traitsIcESaIcEEEEEbRKNS_17__normal_iteratorIT_T0_EESE_
	testb	%al, %al
	je	L465
	movl	-12(%ebp), %eax
	movl	8(%eax), %edx
	movl	8(%ebp), %eax
	movl	8(%eax), %eax
	cmpl	%eax, %edx
	jne	L465
	movl	-12(%ebp), %eax
	movl	12(%eax), %edx
	movl	8(%ebp), %eax
	movl	12(%eax), %eax
	cmpl	%eax, %edx
	jne	L465
	movl	8(%ebp), %eax
	addl	$16, %eax
	movl	$0, (%esp)
	movl	%eax, %ecx
	call	__ZNKSt7__cxx1113match_resultsIN9__gnu_cxx17__normal_iteratorIPKcNS_12basic_stringIcSt11char_traitsIcESaIcEEEEESaINS_9sub_matchISA_EEEEixEj
	subl	$4, %esp
	movl	%eax, %ebx
	movl	-12(%ebp), %eax
	addl	$16, %eax
	movl	$0, (%esp)
	movl	%eax, %ecx
	call	__ZNKSt7__cxx1113match_resultsIN9__gnu_cxx17__normal_iteratorIPKcNS_12basic_stringIcSt11char_traitsIcESaIcEEEEESaINS_9sub_matchISA_EEEEixEj
	subl	$4, %esp
	movl	%ebx, 4(%esp)
	movl	%eax, (%esp)
	call	__ZNSt7__cxx11eqIN9__gnu_cxx17__normal_iteratorIPKcNS_12basic_stringIcSt11char_traitsIcESaIcEEEEEEEbRKNS_9sub_matchIT_EESF_
	testb	%al, %al
	je	L465
L464:
	movl	$1, %eax
	jmp	L466
L465:
	movl	$0, %eax
L466:
	movl	-4(%ebp), %ebx
	leave
	.cfi_restore 5
	.cfi_restore 3
	.cfi_def_cfa 4, 4
	ret	$4
	.cfi_endproc
LFE5125:
	.section	.text$_ZSt4copyIN9__gnu_cxx17__normal_iteratorIPKcNSt7__cxx1112basic_stringIcSt11char_traitsIcESaIcEEEEESt20back_insert_iteratorIS9_EET0_T_SE_SD_,"x"
	.linkonce discard
	.globl	__ZSt4copyIN9__gnu_cxx17__normal_iteratorIPKcNSt7__cxx1112basic_stringIcSt11char_traitsIcESaIcEEEEESt20back_insert_iteratorIS9_EET0_T_SE_SD_
	.def	__ZSt4copyIN9__gnu_cxx17__normal_iteratorIPKcNSt7__cxx1112basic_stringIcSt11char_traitsIcESaIcEEEEESt20back_insert_iteratorIS9_EET0_T_SE_SD_;	.scl	2;	.type	32;	.endef
__ZSt4copyIN9__gnu_cxx17__normal_iteratorIPKcNSt7__cxx1112basic_stringIcSt11char_traitsIcESaIcEEEEESt20back_insert_iteratorIS9_EET0_T_SE_SD_:
LFB5126:
	.cfi_startproc
	pushl	%ebp
	.cfi_def_cfa_offset 8
	.cfi_offset 5, -8
	movl	%esp, %ebp
	.cfi_def_cfa_register 5
	pushl	%ebx
	subl	$20, %esp
	.cfi_offset 3, -12
	movl	12(%ebp), %eax
	movl	%eax, (%esp)
	call	__ZSt12__miter_baseIN9__gnu_cxx17__normal_iteratorIPKcNSt7__cxx1112basic_stringIcSt11char_traitsIcESaIcEEEEEET_SB_
	movl	%eax, %ebx
	movl	8(%ebp), %eax
	movl	%eax, (%esp)
	call	__ZSt12__miter_baseIN9__gnu_cxx17__normal_iteratorIPKcNSt7__cxx1112basic_stringIcSt11char_traitsIcESaIcEEEEEET_SB_
	movl	%eax, %edx
	movl	16(%ebp), %eax
	movl	%eax, 8(%esp)
	movl	%ebx, 4(%esp)
	movl	%edx, (%esp)
	call	__ZSt14__copy_move_a2ILb0EN9__gnu_cxx17__normal_iteratorIPKcNSt7__cxx1112basic_stringIcSt11char_traitsIcESaIcEEEEESt20back_insert_iteratorIS9_EET1_T0_SE_SD_
	addl	$20, %esp
	popl	%ebx
	.cfi_restore 3
	popl	%ebp
	.cfi_restore 5
	.cfi_def_cfa 4, 4
	ret
	.cfi_endproc
LFE5126:
	.section	.text$_ZNKSt7__cxx1114regex_iteratorIN9__gnu_cxx17__normal_iteratorIPKcNS_12basic_stringIcSt11char_traitsIcESaIcEEEEEcNS_12regex_traitsIcEEEneERKSD_,"x"
	.linkonce discard
	.align 2
	.globl	__ZNKSt7__cxx1114regex_iteratorIN9__gnu_cxx17__normal_iteratorIPKcNS_12basic_stringIcSt11char_traitsIcESaIcEEEEEcNS_12regex_traitsIcEEEneERKSD_
	.def	__ZNKSt7__cxx1114regex_iteratorIN9__gnu_cxx17__normal_iteratorIPKcNS_12basic_stringIcSt11char_traitsIcESaIcEEEEEcNS_12regex_traitsIcEEEneERKSD_;	.scl	2;	.type	32;	.endef
__ZNKSt7__cxx1114regex_iteratorIN9__gnu_cxx17__normal_iteratorIPKcNS_12basic_stringIcSt11char_traitsIcESaIcEEEEEcNS_12regex_traitsIcEEEneERKSD_:
LFB5127:
	.cfi_startproc
	pushl	%ebp
	.cfi_def_cfa_offset 8
	.cfi_offset 5, -8
	movl	%esp, %ebp
	.cfi_def_cfa_register 5
	subl	$40, %esp
	movl	%ecx, -12(%ebp)
	movl	-12(%ebp), %eax
	movl	8(%ebp), %edx
	movl	%edx, (%esp)
	movl	%eax, %ecx
	call	__ZNKSt7__cxx1114regex_iteratorIN9__gnu_cxx17__normal_iteratorIPKcNS_12basic_stringIcSt11char_traitsIcESaIcEEEEEcNS_12regex_traitsIcEEEeqERKSD_
	subl	$4, %esp
	xorl	$1, %eax
	leave
	.cfi_restore 5
	.cfi_def_cfa 4, 4
	ret	$4
	.cfi_endproc
LFE5127:
	.section	.text$_ZN9__gnu_cxx14__alloc_traitsISaINSt7__cxx119sub_matchINS_17__normal_iteratorIPKcNS1_12basic_stringIcSt11char_traitsIcESaIcEEEEEEEEE15_S_always_equalEv,"x"
	.linkonce discard
	.globl	__ZN9__gnu_cxx14__alloc_traitsISaINSt7__cxx119sub_matchINS_17__normal_iteratorIPKcNS1_12basic_stringIcSt11char_traitsIcESaIcEEEEEEEEE15_S_always_equalEv
	.def	__ZN9__gnu_cxx14__alloc_traitsISaINSt7__cxx119sub_matchINS_17__normal_iteratorIPKcNS1_12basic_stringIcSt11char_traitsIcESaIcEEEEEEEEE15_S_always_equalEv;	.scl	2;	.type	32;	.endef
__ZN9__gnu_cxx14__alloc_traitsISaINSt7__cxx119sub_matchINS_17__normal_iteratorIPKcNS1_12basic_stringIcSt11char_traitsIcESaIcEEEEEEEEE15_S_always_equalEv:
LFB5131:
	.cfi_startproc
	pushl	%ebp
	.cfi_def_cfa_offset 8
	.cfi_offset 5, -8
	movl	%esp, %ebp
	.cfi_def_cfa_register 5
	movl	$1, %eax
	popl	%ebp
	.cfi_restore 5
	.cfi_def_cfa 4, 4
	ret
	.cfi_endproc
LFE5131:
	.section	.text$_ZNSt7__cxx1113match_resultsIN9__gnu_cxx17__normal_iteratorIPKcNS_12basic_stringIcSt11char_traitsIcESaIcEEEEESaINS_9sub_matchISA_EEEEaSEOSE_,"x"
	.linkonce discard
	.align 2
	.globl	__ZNSt7__cxx1113match_resultsIN9__gnu_cxx17__normal_iteratorIPKcNS_12basic_stringIcSt11char_traitsIcESaIcEEEEESaINS_9sub_matchISA_EEEEaSEOSE_
	.def	__ZNSt7__cxx1113match_resultsIN9__gnu_cxx17__normal_iteratorIPKcNS_12basic_stringIcSt11char_traitsIcESaIcEEEEESaINS_9sub_matchISA_EEEEaSEOSE_;	.scl	2;	.type	32;	.endef
__ZNSt7__cxx1113match_resultsIN9__gnu_cxx17__normal_iteratorIPKcNS_12basic_stringIcSt11char_traitsIcESaIcEEEEESaINS_9sub_matchISA_EEEEaSEOSE_:
LFB5132:
	.cfi_startproc
	pushl	%ebp
	.cfi_def_cfa_offset 8
	.cfi_offset 5, -8
	movl	%esp, %ebp
	.cfi_def_cfa_register 5
	subl	$40, %esp
	movl	%ecx, -12(%ebp)
	movl	8(%ebp), %edx
	movl	-12(%ebp), %eax
	movl	%edx, (%esp)
	movl	%eax, %ecx
	call	__ZNSt6vectorINSt7__cxx119sub_matchIN9__gnu_cxx17__normal_iteratorIPKcNS0_12basic_stringIcSt11char_traitsIcESaIcEEEEEEESaISC_EEaSEOSE_
	subl	$4, %esp
	movl	-12(%ebp), %eax
	movl	8(%ebp), %edx
	movl	12(%edx), %edx
	movl	%edx, 12(%eax)
	movl	-12(%ebp), %eax
	leave
	.cfi_restore 5
	.cfi_def_cfa 4, 4
	ret	$4
	.cfi_endproc
LFE5132:
	.section	.text$_ZNSt7__cxx1114regex_iteratorIN9__gnu_cxx17__normal_iteratorIPKcNS_12basic_stringIcSt11char_traitsIcESaIcEEEEEcNS_12regex_traitsIcEEEppEv,"x"
	.linkonce discard
	.align 2
	.globl	__ZNSt7__cxx1114regex_iteratorIN9__gnu_cxx17__normal_iteratorIPKcNS_12basic_stringIcSt11char_traitsIcESaIcEEEEEcNS_12regex_traitsIcEEEppEv
	.def	__ZNSt7__cxx1114regex_iteratorIN9__gnu_cxx17__normal_iteratorIPKcNS_12basic_stringIcSt11char_traitsIcESaIcEEEEEcNS_12regex_traitsIcEEEppEv;	.scl	2;	.type	32;	.endef
__ZNSt7__cxx1114regex_iteratorIN9__gnu_cxx17__normal_iteratorIPKcNS_12basic_stringIcSt11char_traitsIcESaIcEEEEEcNS_12regex_traitsIcEEEppEv:
LFB5128:
	.cfi_startproc
	pushl	%ebp
	.cfi_def_cfa_offset 8
	.cfi_offset 5, -8
	movl	%esp, %ebp
	.cfi_def_cfa_register 5
	pushl	%ebx
	subl	$116, %esp
	.cfi_offset 3, -12
	movl	%ecx, -76(%ebp)
	movl	-76(%ebp), %eax
	addl	$16, %eax
	movl	$0, (%esp)
	movl	%eax, %ecx
	call	__ZNKSt7__cxx1113match_resultsIN9__gnu_cxx17__normal_iteratorIPKcNS_12basic_stringIcSt11char_traitsIcESaIcEEEEESaINS_9sub_matchISA_EEEEixEj
	subl	$4, %esp
	movzbl	8(%eax), %eax
	testb	%al, %al
	je	L477
	movl	-76(%ebp), %eax
	addl	$16, %eax
	movl	$0, (%esp)
	movl	%eax, %ecx
	call	__ZNKSt7__cxx1113match_resultsIN9__gnu_cxx17__normal_iteratorIPKcNS_12basic_stringIcSt11char_traitsIcESaIcEEEEESaINS_9sub_matchISA_EEEEixEj
	subl	$4, %esp
	movl	4(%eax), %eax
	movl	%eax, -60(%ebp)
	movl	-76(%ebp), %eax
	addl	$16, %eax
	movl	$0, (%esp)
	movl	%eax, %ecx
	call	__ZNKSt7__cxx1113match_resultsIN9__gnu_cxx17__normal_iteratorIPKcNS_12basic_stringIcSt11char_traitsIcESaIcEEEEESaINS_9sub_matchISA_EEEEixEj
	subl	$4, %esp
	movl	4(%eax), %eax
	movl	%eax, -64(%ebp)
	movl	-76(%ebp), %eax
	addl	$16, %eax
	movl	$0, (%esp)
	movl	%eax, %ecx
	call	__ZNKSt7__cxx1113match_resultsIN9__gnu_cxx17__normal_iteratorIPKcNS_12basic_stringIcSt11char_traitsIcESaIcEEEEESaINS_9sub_matchISA_EEEEixEj
	subl	$4, %esp
	leal	4(%eax), %ebx
	movl	-76(%ebp), %eax
	addl	$16, %eax
	movl	$0, (%esp)
	movl	%eax, %ecx
	call	__ZNKSt7__cxx1113match_resultsIN9__gnu_cxx17__normal_iteratorIPKcNS_12basic_stringIcSt11char_traitsIcESaIcEEEEESaINS_9sub_matchISA_EEEEixEj
	subl	$4, %esp
	movl	%ebx, 4(%esp)
	movl	%eax, (%esp)
	call	__ZN9__gnu_cxxeqIPKcNSt7__cxx1112basic_stringIcSt11char_traitsIcESaIcEEEEEbRKNS_17__normal_iteratorIT_T0_EESE_
	testb	%al, %al
	je	L478
	movl	-76(%ebp), %eax
	addl	$4, %eax
	movl	%eax, 4(%esp)
	leal	-60(%ebp), %eax
	movl	%eax, (%esp)
	call	__ZN9__gnu_cxxeqIPKcNSt7__cxx1112basic_stringIcSt11char_traitsIcESaIcEEEEEbRKNS_17__normal_iteratorIT_T0_EESE_
	testb	%al, %al
	je	L479
	leal	-37(%ebp), %eax
	movl	%eax, %ecx
	call	__ZNSaINSt7__cxx119sub_matchIN9__gnu_cxx17__normal_iteratorIPKcNS_12basic_stringIcSt11char_traitsIcESaIcEEEEEEEEC1Ev
	leal	-56(%ebp), %eax
	leal	-37(%ebp), %edx
	movl	%edx, (%esp)
	movl	%eax, %ecx
	call	__ZNSt7__cxx1113match_resultsIN9__gnu_cxx17__normal_iteratorIPKcNS_12basic_stringIcSt11char_traitsIcESaIcEEEEESaINS_9sub_matchISA_EEEEC1ERKSD_
	subl	$4, %esp
	movl	-76(%ebp), %eax
	leal	16(%eax), %edx
	leal	-56(%ebp), %eax
	movl	%eax, (%esp)
	movl	%edx, %ecx
	call	__ZNSt7__cxx1113match_resultsIN9__gnu_cxx17__normal_iteratorIPKcNS_12basic_stringIcSt11char_traitsIcESaIcEEEEESaINS_9sub_matchISA_EEEEaSEOSE_
	subl	$4, %esp
	leal	-56(%ebp), %eax
	movl	%eax, %ecx
	call	__ZNSt7__cxx1113match_resultsIN9__gnu_cxx17__normal_iteratorIPKcNS_12basic_stringIcSt11char_traitsIcESaIcEEEEESaINS_9sub_matchISA_EEEED1Ev
	leal	-37(%ebp), %eax
	movl	%eax, %ecx
	call	__ZNSaINSt7__cxx119sub_matchIN9__gnu_cxx17__normal_iteratorIPKcNS_12basic_stringIcSt11char_traitsIcESaIcEEEEEEEED1Ev
	movl	-76(%ebp), %eax
	jmp	L484
L479:
	movl	-76(%ebp), %eax
	movl	12(%eax), %eax
	movl	$32, 4(%esp)
	movl	%eax, (%esp)
	call	__ZNSt15regex_constantsorENS_15match_flag_typeES0_
	movl	$64, 4(%esp)
	movl	%eax, (%esp)
	call	__ZNSt15regex_constantsorENS_15match_flag_typeES0_
	movl	%eax, %ecx
	movl	-76(%ebp), %eax
	movl	8(%eax), %eax
	movl	-76(%ebp), %edx
	addl	$16, %edx
	movl	%ecx, 16(%esp)
	movl	%eax, 12(%esp)
	movl	%edx, 8(%esp)
	movl	-76(%ebp), %eax
	movl	4(%eax), %eax
	movl	%eax, 4(%esp)
	movl	-60(%ebp), %eax
	movl	%eax, (%esp)
	call	__ZSt12regex_searchIN9__gnu_cxx17__normal_iteratorIPKcNSt7__cxx1112basic_stringIcSt11char_traitsIcESaIcEEEEESaINS4_9sub_matchISA_EEEcNS4_12regex_traitsIcEEEbT_SG_RNS4_13match_resultsISG_T0_EERKNS4_11basic_regexIT1_T2_EENSt15regex_constants15match_flag_typeE
	testb	%al, %al
	je	L481
	movl	-76(%ebp), %eax
	addl	$16, %eax
	movl	%eax, %ecx
	call	__ZNSt7__cxx1113match_resultsIN9__gnu_cxx17__normal_iteratorIPKcNS_12basic_stringIcSt11char_traitsIcESaIcEEEEESaINS_9sub_matchISA_EEEE9_M_prefixEv
	movl	%eax, -12(%ebp)
	movl	-12(%ebp), %eax
	movl	-64(%ebp), %edx
	movl	%edx, (%eax)
	movl	-12(%ebp), %eax
	leal	4(%eax), %edx
	movl	-12(%ebp), %eax
	movl	%edx, 4(%esp)
	movl	%eax, (%esp)
	call	__ZN9__gnu_cxxneIPKcNSt7__cxx1112basic_stringIcSt11char_traitsIcESaIcEEEEEbRKNS_17__normal_iteratorIT_T0_EESE_
	movl	%eax, %edx
	movl	-12(%ebp), %eax
	movb	%dl, 8(%eax)
	movl	-76(%ebp), %eax
	movl	-76(%ebp), %edx
	movl	(%edx), %edx
	movl	%edx, 28(%eax)
	movl	-76(%ebp), %eax
	jmp	L484
L481:
	leal	-60(%ebp), %eax
	movl	%eax, %ecx
	call	__ZN9__gnu_cxx17__normal_iteratorIPKcNSt7__cxx1112basic_stringIcSt11char_traitsIcESaIcEEEEppEv
L478:
	movl	-76(%ebp), %eax
	addl	$12, %eax
	movl	$128, 4(%esp)
	movl	%eax, (%esp)
	call	__ZNSt15regex_constantsoRERNS_15match_flag_typeES0_
	movl	-76(%ebp), %eax
	movl	12(%eax), %edx
	movl	-76(%ebp), %eax
	movl	8(%eax), %eax
	movl	-76(%ebp), %ecx
	addl	$16, %ecx
	movl	%edx, 16(%esp)
	movl	%eax, 12(%esp)
	movl	%ecx, 8(%esp)
	movl	-76(%ebp), %eax
	movl	4(%eax), %eax
	movl	%eax, 4(%esp)
	movl	-60(%ebp), %eax
	movl	%eax, (%esp)
	call	__ZSt12regex_searchIN9__gnu_cxx17__normal_iteratorIPKcNSt7__cxx1112basic_stringIcSt11char_traitsIcESaIcEEEEESaINS4_9sub_matchISA_EEEcNS4_12regex_traitsIcEEEbT_SG_RNS4_13match_resultsISG_T0_EERKNS4_11basic_regexIT1_T2_EENSt15regex_constants15match_flag_typeE
	testb	%al, %al
	je	L482
	movl	-76(%ebp), %eax
	addl	$16, %eax
	movl	%eax, %ecx
	call	__ZNSt7__cxx1113match_resultsIN9__gnu_cxx17__normal_iteratorIPKcNS_12basic_stringIcSt11char_traitsIcESaIcEEEEESaINS_9sub_matchISA_EEEE9_M_prefixEv
	movl	%eax, -16(%ebp)
	movl	-16(%ebp), %eax
	movl	-64(%ebp), %edx
	movl	%edx, (%eax)
	movl	-16(%ebp), %eax
	leal	4(%eax), %edx
	movl	-16(%ebp), %eax
	movl	%edx, 4(%esp)
	movl	%eax, (%esp)
	call	__ZN9__gnu_cxxneIPKcNSt7__cxx1112basic_stringIcSt11char_traitsIcESaIcEEEEEbRKNS_17__normal_iteratorIT_T0_EESE_
	movl	%eax, %edx
	movl	-16(%ebp), %eax
	movb	%dl, 8(%eax)
	movl	-76(%ebp), %eax
	movl	-76(%ebp), %edx
	movl	(%edx), %edx
	movl	%edx, 28(%eax)
	jmp	L477
L482:
	leal	-17(%ebp), %eax
	movl	%eax, %ecx
	call	__ZNSaINSt7__cxx119sub_matchIN9__gnu_cxx17__normal_iteratorIPKcNS_12basic_stringIcSt11char_traitsIcESaIcEEEEEEEEC1Ev
	leal	-36(%ebp), %eax
	leal	-17(%ebp), %edx
	movl	%edx, (%esp)
	movl	%eax, %ecx
	call	__ZNSt7__cxx1113match_resultsIN9__gnu_cxx17__normal_iteratorIPKcNS_12basic_stringIcSt11char_traitsIcESaIcEEEEESaINS_9sub_matchISA_EEEEC1ERKSD_
	subl	$4, %esp
	movl	-76(%ebp), %eax
	leal	16(%eax), %edx
	leal	-36(%ebp), %eax
	movl	%eax, (%esp)
	movl	%edx, %ecx
	call	__ZNSt7__cxx1113match_resultsIN9__gnu_cxx17__normal_iteratorIPKcNS_12basic_stringIcSt11char_traitsIcESaIcEEEEESaINS_9sub_matchISA_EEEEaSEOSE_
	subl	$4, %esp
	leal	-36(%ebp), %eax
	movl	%eax, %ecx
	call	__ZNSt7__cxx1113match_resultsIN9__gnu_cxx17__normal_iteratorIPKcNS_12basic_stringIcSt11char_traitsIcESaIcEEEEESaINS_9sub_matchISA_EEEED1Ev
	leal	-17(%ebp), %eax
	movl	%eax, %ecx
	call	__ZNSaINSt7__cxx119sub_matchIN9__gnu_cxx17__normal_iteratorIPKcNS_12basic_stringIcSt11char_traitsIcESaIcEEEEEEEED1Ev
L477:
	movl	-76(%ebp), %eax
L484:
	movl	-4(%ebp), %ebx
	leave
	.cfi_restore 5
	.cfi_restore 3
	.cfi_def_cfa 4, 4
	ret
	.cfi_endproc
LFE5128:
	.section	.text$_ZNKSt7__cxx1114regex_iteratorIN9__gnu_cxx17__normal_iteratorIPKcNS_12basic_stringIcSt11char_traitsIcESaIcEEEEEcNS_12regex_traitsIcEEEptEv,"x"
	.linkonce discard
	.align 2
	.globl	__ZNKSt7__cxx1114regex_iteratorIN9__gnu_cxx17__normal_iteratorIPKcNS_12basic_stringIcSt11char_traitsIcESaIcEEEEEcNS_12regex_traitsIcEEEptEv
	.def	__ZNKSt7__cxx1114regex_iteratorIN9__gnu_cxx17__normal_iteratorIPKcNS_12basic_stringIcSt11char_traitsIcESaIcEEEEEcNS_12regex_traitsIcEEEptEv;	.scl	2;	.type	32;	.endef
__ZNKSt7__cxx1114regex_iteratorIN9__gnu_cxx17__normal_iteratorIPKcNS_12basic_stringIcSt11char_traitsIcESaIcEEEEEcNS_12regex_traitsIcEEEptEv:
LFB5133:
	.cfi_startproc
	pushl	%ebp
	.cfi_def_cfa_offset 8
	.cfi_offset 5, -8
	movl	%esp, %ebp
	.cfi_def_cfa_register 5
	subl	$4, %esp
	movl	%ecx, -4(%ebp)
	movl	-4(%ebp), %eax
	addl	$16, %eax
	leave
	.cfi_restore 5
	.cfi_def_cfa 4, 4
	ret
	.cfi_endproc
LFE5133:
	.section	.text$_ZNKSt7__cxx1113match_resultsIN9__gnu_cxx17__normal_iteratorIPKcNS_12basic_stringIcSt11char_traitsIcESaIcEEEEESaINS_9sub_matchISA_EEEE6prefixEv,"x"
	.linkonce discard
	.align 2
	.globl	__ZNKSt7__cxx1113match_resultsIN9__gnu_cxx17__normal_iteratorIPKcNS_12basic_stringIcSt11char_traitsIcESaIcEEEEESaINS_9sub_matchISA_EEEE6prefixEv
	.def	__ZNKSt7__cxx1113match_resultsIN9__gnu_cxx17__normal_iteratorIPKcNS_12basic_stringIcSt11char_traitsIcESaIcEEEEESaINS_9sub_matchISA_EEEE6prefixEv;	.scl	2;	.type	32;	.endef
__ZNKSt7__cxx1113match_resultsIN9__gnu_cxx17__normal_iteratorIPKcNS_12basic_stringIcSt11char_traitsIcESaIcEEEEESaINS_9sub_matchISA_EEEE6prefixEv:
LFB5134:
	.cfi_startproc
	pushl	%ebp
	.cfi_def_cfa_offset 8
	.cfi_offset 5, -8
	movl	%esp, %ebp
	.cfi_def_cfa_register 5
	subl	$24, %esp
	movl	%ecx, -12(%ebp)
	movl	-12(%ebp), %eax
	movl	%eax, %ecx
	call	__ZNKSt7__cxx1113match_resultsIN9__gnu_cxx17__normal_iteratorIPKcNS_12basic_stringIcSt11char_traitsIcESaIcEEEEESaINS_9sub_matchISA_EEEE5emptyEv
	xorl	$1, %eax
	testb	%al, %al
	je	L488
	movl	-12(%ebp), %eax
	movl	%eax, %ecx
	call	__ZNKSt7__cxx1113match_resultsIN9__gnu_cxx17__normal_iteratorIPKcNS_12basic_stringIcSt11char_traitsIcESaIcEEEEESaINS_9sub_matchISA_EEEE9_M_prefixEv
	jmp	L490
L488:
	movl	-12(%ebp), %eax
	movl	%eax, %ecx
	call	__ZNKSt7__cxx1113match_resultsIN9__gnu_cxx17__normal_iteratorIPKcNS_12basic_stringIcSt11char_traitsIcESaIcEEEEESaINS_9sub_matchISA_EEEE16_M_unmatched_subEv
L490:
	leave
	.cfi_restore 5
	.cfi_def_cfa 4, 4
	ret
	.cfi_endproc
LFE5134:
	.section	.text$_ZNSt7__cxx1112regex_traitsIcED1Ev,"x"
	.linkonce discard
	.align 2
	.globl	__ZNSt7__cxx1112regex_traitsIcED1Ev
	.def	__ZNSt7__cxx1112regex_traitsIcED1Ev;	.scl	2;	.type	32;	.endef
__ZNSt7__cxx1112regex_traitsIcED1Ev:
LFB5138:
	.cfi_startproc
	pushl	%ebp
	.cfi_def_cfa_offset 8
	.cfi_offset 5, -8
	movl	%esp, %ebp
	.cfi_def_cfa_register 5
	subl	$24, %esp
	movl	%ecx, -12(%ebp)
	movl	-12(%ebp), %eax
	movl	%eax, %ecx
	call	__ZNSt6localeD1Ev
	nop
	leave
	.cfi_restore 5
	.cfi_def_cfa 4, 4
	ret
	.cfi_endproc
LFE5138:
	.section	.text$_ZZNKSt7__cxx1113match_resultsIN9__gnu_cxx17__normal_iteratorIPKcNS_12basic_stringIcSt11char_traitsIcESaIcEEEEESaINS_9sub_matchISA_EEEE6formatISt20back_insert_iteratorIS9_EEET_SI_S4_S4_NSt15regex_constants15match_flag_typeEENKUljE_clEj,"x"
	.linkonce discard
	.align 2
	.globl	__ZZNKSt7__cxx1113match_resultsIN9__gnu_cxx17__normal_iteratorIPKcNS_12basic_stringIcSt11char_traitsIcESaIcEEEEESaINS_9sub_matchISA_EEEE6formatISt20back_insert_iteratorIS9_EEET_SI_S4_S4_NSt15regex_constants15match_flag_typeEENKUljE_clEj
	.def	__ZZNKSt7__cxx1113match_resultsIN9__gnu_cxx17__normal_iteratorIPKcNS_12basic_stringIcSt11char_traitsIcESaIcEEEEESaINS_9sub_matchISA_EEEE6formatISt20back_insert_iteratorIS9_EEET_SI_S4_S4_NSt15regex_constants15match_flag_typeEENKUljE_clEj;	.scl	2;	.type	32;	.endef
__ZZNKSt7__cxx1113match_resultsIN9__gnu_cxx17__normal_iteratorIPKcNS_12basic_stringIcSt11char_traitsIcESaIcEEEEESaINS_9sub_matchISA_EEEE6formatISt20back_insert_iteratorIS9_EEET_SI_S4_S4_NSt15regex_constants15match_flag_typeEENKUljE_clEj:
LFB5139:
	.cfi_startproc
	pushl	%ebp
	.cfi_def_cfa_offset 8
	.cfi_offset 5, -8
	movl	%esp, %ebp
	.cfi_def_cfa_register 5
	pushl	%ebx
	subl	$52, %esp
	.cfi_offset 3, -12
	movl	%ecx, -28(%ebp)
	movl	-28(%ebp), %eax
	movl	(%eax), %eax
	movl	8(%ebp), %edx
	movl	%edx, (%esp)
	movl	%eax, %ecx
	call	__ZNKSt7__cxx1113match_resultsIN9__gnu_cxx17__normal_iteratorIPKcNS_12basic_stringIcSt11char_traitsIcESaIcEEEEESaINS_9sub_matchISA_EEEEixEj
	subl	$4, %esp
	movl	%eax, -12(%ebp)
	movl	-12(%ebp), %eax
	movzbl	8(%eax), %eax
	testb	%al, %al
	je	L494
	movl	-28(%ebp), %eax
	movl	4(%eax), %ebx
	movl	-28(%ebp), %eax
	movl	4(%eax), %eax
	movl	(%eax), %eax
	movl	%eax, 8(%esp)
	movl	-12(%ebp), %eax
	movl	4(%eax), %eax
	movl	%eax, 4(%esp)
	movl	-12(%ebp), %eax
	movl	(%eax), %eax
	movl	%eax, (%esp)
	call	__ZSt4copyIN9__gnu_cxx17__normal_iteratorIPKcNSt7__cxx1112basic_stringIcSt11char_traitsIcESaIcEEEEESt20back_insert_iteratorIS9_EET0_T_SE_SD_
	movl	%eax, (%ebx)
L494:
	nop
	movl	-4(%ebp), %ebx
	leave
	.cfi_restore 5
	.cfi_restore 3
	.cfi_def_cfa 4, 4
	ret	$4
	.cfi_endproc
LFE5139:
	.section	.text$_ZZNKSt7__cxx1113match_resultsIN9__gnu_cxx17__normal_iteratorIPKcNS_12basic_stringIcSt11char_traitsIcESaIcEEEEESaINS_9sub_matchISA_EEEE6formatISt20back_insert_iteratorIS9_EEET_SI_S4_S4_NSt15regex_constants15match_flag_typeEENKUlcE0_clEc,"x"
	.linkonce discard
	.align 2
	.globl	__ZZNKSt7__cxx1113match_resultsIN9__gnu_cxx17__normal_iteratorIPKcNS_12basic_stringIcSt11char_traitsIcESaIcEEEEESaINS_9sub_matchISA_EEEE6formatISt20back_insert_iteratorIS9_EEET_SI_S4_S4_NSt15regex_constants15match_flag_typeEENKUlcE0_clEc
	.def	__ZZNKSt7__cxx1113match_resultsIN9__gnu_cxx17__normal_iteratorIPKcNS_12basic_stringIcSt11char_traitsIcESaIcEEEEESaINS_9sub_matchISA_EEEE6formatISt20back_insert_iteratorIS9_EEET_SI_S4_S4_NSt15regex_constants15match_flag_typeEENKUlcE0_clEc;	.scl	2;	.type	32;	.endef
__ZZNKSt7__cxx1113match_resultsIN9__gnu_cxx17__normal_iteratorIPKcNS_12basic_stringIcSt11char_traitsIcESaIcEEEEESaINS_9sub_matchISA_EEEE6formatISt20back_insert_iteratorIS9_EEET_SI_S4_S4_NSt15regex_constants15match_flag_typeEENKUlcE0_clEc:
LFB5140:
	.cfi_startproc
	pushl	%ebp
	.cfi_def_cfa_offset 8
	.cfi_offset 5, -8
	movl	%esp, %ebp
	.cfi_def_cfa_register 5
	subl	$8, %esp
	movl	%ecx, -4(%ebp)
	movl	8(%ebp), %eax
	movb	%al, -8(%ebp)
	movl	-4(%ebp), %eax
	movl	(%eax), %eax
	movl	(%eax), %eax
	movzbl	(%eax), %eax
	cmpb	-8(%ebp), %al
	jne	L496
	movl	-4(%ebp), %eax
	movl	(%eax), %eax
	movl	(%eax), %edx
	addl	$1, %edx
	movl	%edx, (%eax)
	movl	$1, %eax
	jmp	L497
L496:
	movl	$0, %eax
L497:
	leave
	.cfi_restore 5
	.cfi_def_cfa 4, 4
	ret	$4
	.cfi_endproc
LFE5140:
	.section	.text$_ZNKSt7__cxx1113match_resultsIN9__gnu_cxx17__normal_iteratorIPKcNS_12basic_stringIcSt11char_traitsIcESaIcEEEEESaINS_9sub_matchISA_EEEE6formatISt20back_insert_iteratorIS9_EEET_SI_S4_S4_NSt15regex_constants15match_flag_typeE,"x"
	.linkonce discard
	.align 2
	.globl	__ZNKSt7__cxx1113match_resultsIN9__gnu_cxx17__normal_iteratorIPKcNS_12basic_stringIcSt11char_traitsIcESaIcEEEEESaINS_9sub_matchISA_EEEE6formatISt20back_insert_iteratorIS9_EEET_SI_S4_S4_NSt15regex_constants15match_flag_typeE
	.def	__ZNKSt7__cxx1113match_resultsIN9__gnu_cxx17__normal_iteratorIPKcNS_12basic_stringIcSt11char_traitsIcESaIcEEEEESaINS_9sub_matchISA_EEEE6formatISt20back_insert_iteratorIS9_EEET_SI_S4_S4_NSt15regex_constants15match_flag_typeE;	.scl	2;	.type	32;	.endef
__ZNKSt7__cxx1113match_resultsIN9__gnu_cxx17__normal_iteratorIPKcNS_12basic_stringIcSt11char_traitsIcESaIcEEEEESaINS_9sub_matchISA_EEEE6formatISt20back_insert_iteratorIS9_EEET_SI_S4_S4_NSt15regex_constants15match_flag_typeE:
LFB5135:
	.cfi_startproc
	.cfi_personality 0,___gxx_personality_v0
	.cfi_lsda 0,LLSDA5135
	pushl	%ebp
	.cfi_def_cfa_offset 8
	.cfi_offset 5, -8
	movl	%esp, %ebp
	.cfi_def_cfa_register 5
	pushl	%ebx
	subl	$116, %esp
	.cfi_offset 3, -12
	movl	%ecx, -92(%ebp)
	leal	-68(%ebp), %eax
	movl	%eax, %ecx
	call	__ZNSt7__cxx1112regex_traitsIcEC1Ev
	leal	-64(%ebp), %eax
	leal	-68(%ebp), %edx
	movl	%edx, (%esp)
	movl	%eax, %ecx
	call	__ZNKSt7__cxx1112regex_traitsIcE6getlocEv
	subl	$4, %esp
	leal	-64(%ebp), %eax
	movl	%eax, (%esp)
LEHB51:
	call	__ZSt9use_facetISt5ctypeIcEERKT_RKSt6locale
LEHE51:
	movl	%eax, -16(%ebp)
	leal	-64(%ebp), %eax
	movl	%eax, %ecx
	call	__ZNSt6localeD1Ev
	movl	-92(%ebp), %eax
	movl	%eax, -76(%ebp)
	leal	8(%ebp), %eax
	movl	%eax, -72(%ebp)
	movl	$256, 4(%esp)
	movl	20(%ebp), %eax
	movl	%eax, (%esp)
	call	__ZNSt15regex_constantsanENS_15match_flag_typeES0_
	testl	%eax, %eax
	setne	%al
	testb	%al, %al
	je	L499
L508:
	movl	12(%ebp), %eax
	cmpl	16(%ebp), %eax
	je	L500
	movl	12(%ebp), %eax
	movzbl	(%eax), %eax
	cmpb	$38, %al
	jne	L501
	leal	-76(%ebp), %eax
	movl	$0, (%esp)
	movl	%eax, %ecx
LEHB52:
	call	__ZZNKSt7__cxx1113match_resultsIN9__gnu_cxx17__normal_iteratorIPKcNS_12basic_stringIcSt11char_traitsIcESaIcEEEEESaINS_9sub_matchISA_EEEE6formatISt20back_insert_iteratorIS9_EEET_SI_S4_S4_NSt15regex_constants15match_flag_typeEENKUljE_clEj
	subl	$4, %esp
	addl	$1, 12(%ebp)
	jmp	L508
L501:
	movl	12(%ebp), %eax
	movzbl	(%eax), %eax
	cmpb	$92, %al
	jne	L503
	addl	$1, 12(%ebp)
	movl	12(%ebp), %eax
	cmpl	16(%ebp), %eax
	je	L504
	movl	12(%ebp), %eax
	movzbl	(%eax), %eax
	movsbl	%al, %edx
	movl	-16(%ebp), %eax
	movl	%edx, 4(%esp)
	movl	$8, (%esp)
	movl	%eax, %ecx
	call	__ZNKSt5ctypeIcE2isEtc
	subl	$8, %esp
	testb	%al, %al
	je	L504
	movl	$1, %eax
	jmp	L505
L504:
	movl	$0, %eax
L505:
	testb	%al, %al
	je	L506
	movl	12(%ebp), %eax
	leal	1(%eax), %edx
	movl	%edx, 12(%ebp)
	movzbl	(%eax), %eax
	movsbl	%al, %edx
	leal	-68(%ebp), %eax
	movl	$10, 4(%esp)
	movl	%edx, (%esp)
	movl	%eax, %ecx
	call	__ZNKSt7__cxx1112regex_traitsIcE5valueEci
	subl	$8, %esp
	movl	%eax, %edx
	leal	-76(%ebp), %eax
	movl	%edx, (%esp)
	movl	%eax, %ecx
	call	__ZZNKSt7__cxx1113match_resultsIN9__gnu_cxx17__normal_iteratorIPKcNS_12basic_stringIcSt11char_traitsIcESaIcEEEEESaINS_9sub_matchISA_EEEE6formatISt20back_insert_iteratorIS9_EEET_SI_S4_S4_NSt15regex_constants15match_flag_typeEENKUljE_clEj
	subl	$4, %esp
	jmp	L508
L506:
	movb	$92, -57(%ebp)
	movl	$0, (%esp)
	leal	8(%ebp), %ecx
	call	__ZNSt20back_insert_iteratorINSt7__cxx1112basic_stringIcSt11char_traitsIcESaIcEEEEppEi
	subl	$4, %esp
	movl	%eax, -56(%ebp)
	leal	-56(%ebp), %eax
	movl	%eax, %ecx
	call	__ZNSt20back_insert_iteratorINSt7__cxx1112basic_stringIcSt11char_traitsIcESaIcEEEEdeEv
	movl	%eax, %edx
	leal	-57(%ebp), %eax
	movl	%eax, (%esp)
	movl	%edx, %ecx
	call	__ZNSt20back_insert_iteratorINSt7__cxx1112basic_stringIcSt11char_traitsIcESaIcEEEEaSEOc
	subl	$4, %esp
	jmp	L508
L503:
	movl	12(%ebp), %ebx
	leal	1(%ebx), %eax
	movl	%eax, 12(%ebp)
	movl	$0, (%esp)
	leal	8(%ebp), %ecx
	call	__ZNSt20back_insert_iteratorINSt7__cxx1112basic_stringIcSt11char_traitsIcESaIcEEEEppEi
	subl	$4, %esp
	movl	%eax, -52(%ebp)
	leal	-52(%ebp), %eax
	movl	%eax, %ecx
	call	__ZNSt20back_insert_iteratorINSt7__cxx1112basic_stringIcSt11char_traitsIcESaIcEEEEdeEv
	movl	%ebx, (%esp)
	movl	%eax, %ecx
	call	__ZNSt20back_insert_iteratorINSt7__cxx1112basic_stringIcSt11char_traitsIcESaIcEEEEaSERKc
	subl	$4, %esp
	jmp	L508
L499:
	movb	$36, -46(%ebp)
	leal	-46(%ebp), %eax
	movl	%eax, 8(%esp)
	movl	16(%ebp), %eax
	movl	%eax, 4(%esp)
	movl	12(%ebp), %eax
	movl	%eax, (%esp)
	call	__ZSt4findIPKccET_S2_S2_RKT0_
	movl	%eax, -80(%ebp)
	movl	-80(%ebp), %eax
	cmpl	16(%ebp), %eax
	jne	L509
	movl	8(%ebp), %eax
	movl	%eax, 8(%esp)
	movl	16(%ebp), %eax
	movl	%eax, 4(%esp)
	movl	12(%ebp), %eax
	movl	%eax, (%esp)
	call	__ZSt4copyIPKcSt20back_insert_iteratorINSt7__cxx1112basic_stringIcSt11char_traitsIcESaIcEEEEET0_T_SB_SA_
	movl	%eax, 8(%ebp)
	jmp	L500
L509:
	movl	-80(%ebp), %eax
	movl	8(%ebp), %edx
	movl	%edx, 8(%esp)
	movl	%eax, 4(%esp)
	movl	12(%ebp), %eax
	movl	%eax, (%esp)
	call	__ZSt4copyIPKcSt20back_insert_iteratorINSt7__cxx1112basic_stringIcSt11char_traitsIcESaIcEEEEET0_T_SB_SA_
	movl	%eax, 8(%ebp)
	leal	-80(%ebp), %eax
	movl	%eax, -84(%ebp)
	movl	-80(%ebp), %eax
	addl	$1, %eax
	movl	%eax, -80(%ebp)
	movl	-80(%ebp), %eax
	cmpl	16(%ebp), %eax
	sete	%al
	testb	%al, %al
	je	L510
	movb	$36, -45(%ebp)
	movl	$0, (%esp)
	leal	8(%ebp), %ecx
	call	__ZNSt20back_insert_iteratorINSt7__cxx1112basic_stringIcSt11char_traitsIcESaIcEEEEppEi
	subl	$4, %esp
	movl	%eax, -44(%ebp)
	leal	-44(%ebp), %eax
	movl	%eax, %ecx
	call	__ZNSt20back_insert_iteratorINSt7__cxx1112basic_stringIcSt11char_traitsIcESaIcEEEEdeEv
	movl	%eax, %edx
	leal	-45(%ebp), %eax
	movl	%eax, (%esp)
	movl	%edx, %ecx
	call	__ZNSt20back_insert_iteratorINSt7__cxx1112basic_stringIcSt11char_traitsIcESaIcEEEEaSEOc
	subl	$4, %esp
	jmp	L511
L510:
	leal	-84(%ebp), %eax
	movl	$36, (%esp)
	movl	%eax, %ecx
	call	__ZZNKSt7__cxx1113match_resultsIN9__gnu_cxx17__normal_iteratorIPKcNS_12basic_stringIcSt11char_traitsIcESaIcEEEEESaINS_9sub_matchISA_EEEE6formatISt20back_insert_iteratorIS9_EEET_SI_S4_S4_NSt15regex_constants15match_flag_typeEENKUlcE0_clEc
	subl	$4, %esp
	testb	%al, %al
	je	L512
	movb	$36, -37(%ebp)
	movl	$0, (%esp)
	leal	8(%ebp), %ecx
	call	__ZNSt20back_insert_iteratorINSt7__cxx1112basic_stringIcSt11char_traitsIcESaIcEEEEppEi
	subl	$4, %esp
	movl	%eax, -36(%ebp)
	leal	-36(%ebp), %eax
	movl	%eax, %ecx
	call	__ZNSt20back_insert_iteratorINSt7__cxx1112basic_stringIcSt11char_traitsIcESaIcEEEEdeEv
	movl	%eax, %edx
	leal	-37(%ebp), %eax
	movl	%eax, (%esp)
	movl	%edx, %ecx
	call	__ZNSt20back_insert_iteratorINSt7__cxx1112basic_stringIcSt11char_traitsIcESaIcEEEEaSEOc
	subl	$4, %esp
	jmp	L511
L512:
	leal	-84(%ebp), %eax
	movl	$38, (%esp)
	movl	%eax, %ecx
	call	__ZZNKSt7__cxx1113match_resultsIN9__gnu_cxx17__normal_iteratorIPKcNS_12basic_stringIcSt11char_traitsIcESaIcEEEEESaINS_9sub_matchISA_EEEE6formatISt20back_insert_iteratorIS9_EEET_SI_S4_S4_NSt15regex_constants15match_flag_typeEENKUlcE0_clEc
	subl	$4, %esp
	testb	%al, %al
	je	L513
	leal	-76(%ebp), %eax
	movl	$0, (%esp)
	movl	%eax, %ecx
	call	__ZZNKSt7__cxx1113match_resultsIN9__gnu_cxx17__normal_iteratorIPKcNS_12basic_stringIcSt11char_traitsIcESaIcEEEEESaINS_9sub_matchISA_EEEE6formatISt20back_insert_iteratorIS9_EEET_SI_S4_S4_NSt15regex_constants15match_flag_typeEENKUljE_clEj
	subl	$4, %esp
	jmp	L511
L513:
	leal	-84(%ebp), %eax
	movl	$96, (%esp)
	movl	%eax, %ecx
	call	__ZZNKSt7__cxx1113match_resultsIN9__gnu_cxx17__normal_iteratorIPKcNS_12basic_stringIcSt11char_traitsIcESaIcEEEEESaINS_9sub_matchISA_EEEE6formatISt20back_insert_iteratorIS9_EEET_SI_S4_S4_NSt15regex_constants15match_flag_typeEENKUlcE0_clEc
	subl	$4, %esp
	testb	%al, %al
	je	L514
	movl	-92(%ebp), %eax
	movl	%eax, %ecx
	call	__ZNKSt7__cxx1113match_resultsIN9__gnu_cxx17__normal_iteratorIPKcNS_12basic_stringIcSt11char_traitsIcESaIcEEEEESaINS_9sub_matchISA_EEEE9_M_prefixEv
	movl	%eax, -20(%ebp)
	movl	-20(%ebp), %eax
	movzbl	8(%eax), %eax
	testb	%al, %al
	je	L511
	movl	8(%ebp), %eax
	movl	%eax, 8(%esp)
	movl	-20(%ebp), %eax
	movl	4(%eax), %eax
	movl	%eax, 4(%esp)
	movl	-20(%ebp), %eax
	movl	(%eax), %eax
	movl	%eax, (%esp)
	call	__ZSt4copyIN9__gnu_cxx17__normal_iteratorIPKcNSt7__cxx1112basic_stringIcSt11char_traitsIcESaIcEEEEESt20back_insert_iteratorIS9_EET0_T_SE_SD_
	movl	%eax, 8(%ebp)
	jmp	L511
L514:
	leal	-84(%ebp), %eax
	movl	$39, (%esp)
	movl	%eax, %ecx
	call	__ZZNKSt7__cxx1113match_resultsIN9__gnu_cxx17__normal_iteratorIPKcNS_12basic_stringIcSt11char_traitsIcESaIcEEEEESaINS_9sub_matchISA_EEEE6formatISt20back_insert_iteratorIS9_EEET_SI_S4_S4_NSt15regex_constants15match_flag_typeEENKUlcE0_clEc
	subl	$4, %esp
	testb	%al, %al
	je	L516
	movl	-92(%ebp), %eax
	movl	%eax, %ecx
	call	__ZNKSt7__cxx1113match_resultsIN9__gnu_cxx17__normal_iteratorIPKcNS_12basic_stringIcSt11char_traitsIcESaIcEEEEESaINS_9sub_matchISA_EEEE9_M_suffixEv
	movl	%eax, -24(%ebp)
	movl	-24(%ebp), %eax
	movzbl	8(%eax), %eax
	testb	%al, %al
	je	L511
	movl	8(%ebp), %eax
	movl	%eax, 8(%esp)
	movl	-24(%ebp), %eax
	movl	4(%eax), %eax
	movl	%eax, 4(%esp)
	movl	-24(%ebp), %eax
	movl	(%eax), %eax
	movl	%eax, (%esp)
	call	__ZSt4copyIN9__gnu_cxx17__normal_iteratorIPKcNSt7__cxx1112basic_stringIcSt11char_traitsIcESaIcEEEEESt20back_insert_iteratorIS9_EET0_T_SE_SD_
	movl	%eax, 8(%ebp)
	jmp	L511
L516:
	movl	-80(%ebp), %eax
	movzbl	(%eax), %eax
	movsbl	%al, %edx
	movl	-16(%ebp), %eax
	movl	%edx, 4(%esp)
	movl	$8, (%esp)
	movl	%eax, %ecx
	call	__ZNKSt5ctypeIcE2isEtc
	subl	$8, %esp
	testb	%al, %al
	je	L518
	movl	-80(%ebp), %eax
	movzbl	(%eax), %eax
	movsbl	%al, %edx
	leal	-68(%ebp), %eax
	movl	$10, 4(%esp)
	movl	%edx, (%esp)
	movl	%eax, %ecx
	call	__ZNKSt7__cxx1112regex_traitsIcE5valueEci
	subl	$8, %esp
	movl	%eax, -12(%ebp)
	movl	-80(%ebp), %eax
	addl	$1, %eax
	movl	%eax, -80(%ebp)
	movl	-80(%ebp), %eax
	cmpl	16(%ebp), %eax
	je	L519
	movl	-80(%ebp), %eax
	movzbl	(%eax), %eax
	movsbl	%al, %edx
	movl	-16(%ebp), %eax
	movl	%edx, 4(%esp)
	movl	$8, (%esp)
	movl	%eax, %ecx
	call	__ZNKSt5ctypeIcE2isEtc
	subl	$8, %esp
	testb	%al, %al
	je	L519
	movl	$1, %eax
	jmp	L520
L519:
	movl	$0, %eax
L520:
	testb	%al, %al
	je	L521
	movl	-12(%ebp), %edx
	movl	%edx, %eax
	sall	$2, %eax
	addl	%edx, %eax
	addl	%eax, %eax
	movl	%eax, -12(%ebp)
	movl	-80(%ebp), %eax
	leal	1(%eax), %edx
	movl	%edx, -80(%ebp)
	movzbl	(%eax), %eax
	movsbl	%al, %edx
	leal	-68(%ebp), %eax
	movl	$10, 4(%esp)
	movl	%edx, (%esp)
	movl	%eax, %ecx
	call	__ZNKSt7__cxx1112regex_traitsIcE5valueEci
	subl	$8, %esp
	addl	%eax, -12(%ebp)
L521:
	cmpl	$0, -12(%ebp)
	js	L522
	movl	-92(%ebp), %eax
	movl	%eax, %ecx
	call	__ZNKSt7__cxx1113match_resultsIN9__gnu_cxx17__normal_iteratorIPKcNS_12basic_stringIcSt11char_traitsIcESaIcEEEEESaINS_9sub_matchISA_EEEE4sizeEv
	movl	%eax, %edx
	movl	-12(%ebp), %eax
	cmpl	%eax, %edx
	jbe	L522
	movl	$1, %eax
	jmp	L523
L522:
	movl	$0, %eax
L523:
	testb	%al, %al
	je	L511
	movl	-12(%ebp), %edx
	leal	-76(%ebp), %eax
	movl	%edx, (%esp)
	movl	%eax, %ecx
	call	__ZZNKSt7__cxx1113match_resultsIN9__gnu_cxx17__normal_iteratorIPKcNS_12basic_stringIcSt11char_traitsIcESaIcEEEEESaINS_9sub_matchISA_EEEE6formatISt20back_insert_iteratorIS9_EEET_SI_S4_S4_NSt15regex_constants15match_flag_typeEENKUljE_clEj
	subl	$4, %esp
	jmp	L511
L518:
	movb	$36, -29(%ebp)
	movl	$0, (%esp)
	leal	8(%ebp), %ecx
	call	__ZNSt20back_insert_iteratorINSt7__cxx1112basic_stringIcSt11char_traitsIcESaIcEEEEppEi
	subl	$4, %esp
	movl	%eax, -28(%ebp)
	leal	-28(%ebp), %eax
	movl	%eax, %ecx
	call	__ZNSt20back_insert_iteratorINSt7__cxx1112basic_stringIcSt11char_traitsIcESaIcEEEEdeEv
	movl	%eax, %edx
	leal	-29(%ebp), %eax
	movl	%eax, (%esp)
	movl	%edx, %ecx
	call	__ZNSt20back_insert_iteratorINSt7__cxx1112basic_stringIcSt11char_traitsIcESaIcEEEEaSEOc
LEHE52:
	subl	$4, %esp
L511:
	movl	-80(%ebp), %eax
	movl	%eax, 12(%ebp)
	jmp	L499
L500:
	movl	8(%ebp), %ebx
	leal	-68(%ebp), %eax
	movl	%eax, %ecx
	call	__ZNSt7__cxx1112regex_traitsIcED1Ev
	movl	%ebx, %eax
	jmp	L530
L528:
	movl	%eax, %ebx
	leal	-64(%ebp), %eax
	movl	%eax, %ecx
	call	__ZNSt6localeD1Ev
	jmp	L527
L529:
	movl	%eax, %ebx
L527:
	leal	-68(%ebp), %eax
	movl	%eax, %ecx
	call	__ZNSt7__cxx1112regex_traitsIcED1Ev
	movl	%ebx, %eax
	movl	%eax, (%esp)
LEHB53:
	call	__Unwind_Resume
LEHE53:
L530:
	movl	-4(%ebp), %ebx
	leave
	.cfi_restore 5
	.cfi_restore 3
	.cfi_def_cfa 4, 4
	ret	$16
	.cfi_endproc
LFE5135:
	.section	.gcc_except_table,"w"
LLSDA5135:
	.byte	0xff
	.byte	0xff
	.byte	0x1
	.uleb128 LLSDACSE5135-LLSDACSB5135
LLSDACSB5135:
	.uleb128 LEHB51-LFB5135
	.uleb128 LEHE51-LEHB51
	.uleb128 L528-LFB5135
	.uleb128 0
	.uleb128 LEHB52-LFB5135
	.uleb128 LEHE52-LEHB52
	.uleb128 L529-LFB5135
	.uleb128 0
	.uleb128 LEHB53-LFB5135
	.uleb128 LEHE53-LEHB53
	.uleb128 0
	.uleb128 0
LLSDACSE5135:
	.section	.text$_ZNKSt7__cxx1113match_resultsIN9__gnu_cxx17__normal_iteratorIPKcNS_12basic_stringIcSt11char_traitsIcESaIcEEEEESaINS_9sub_matchISA_EEEE6formatISt20back_insert_iteratorIS9_EEET_SI_S4_S4_NSt15regex_constants15match_flag_typeE,"x"
	.linkonce discard
	.section	.text$_ZNKSt7__cxx1113match_resultsIN9__gnu_cxx17__normal_iteratorIPKcNS_12basic_stringIcSt11char_traitsIcESaIcEEEEESaINS_9sub_matchISA_EEEE6suffixEv,"x"
	.linkonce discard
	.align 2
	.globl	__ZNKSt7__cxx1113match_resultsIN9__gnu_cxx17__normal_iteratorIPKcNS_12basic_stringIcSt11char_traitsIcESaIcEEEEESaINS_9sub_matchISA_EEEE6suffixEv
	.def	__ZNKSt7__cxx1113match_resultsIN9__gnu_cxx17__normal_iteratorIPKcNS_12basic_stringIcSt11char_traitsIcESaIcEEEEESaINS_9sub_matchISA_EEEE6suffixEv;	.scl	2;	.type	32;	.endef
__ZNKSt7__cxx1113match_resultsIN9__gnu_cxx17__normal_iteratorIPKcNS_12basic_stringIcSt11char_traitsIcESaIcEEEEESaINS_9sub_matchISA_EEEE6suffixEv:
LFB5141:
	.cfi_startproc
	pushl	%ebp
	.cfi_def_cfa_offset 8
	.cfi_offset 5, -8
	movl	%esp, %ebp
	.cfi_def_cfa_register 5
	subl	$24, %esp
	movl	%ecx, -12(%ebp)
	movl	-12(%ebp), %eax
	movl	%eax, %ecx
	call	__ZNKSt7__cxx1113match_resultsIN9__gnu_cxx17__normal_iteratorIPKcNS_12basic_stringIcSt11char_traitsIcESaIcEEEEESaINS_9sub_matchISA_EEEE5emptyEv
	xorl	$1, %eax
	testb	%al, %al
	je	L532
	movl	-12(%ebp), %eax
	movl	%eax, %ecx
	call	__ZNKSt7__cxx1113match_resultsIN9__gnu_cxx17__normal_iteratorIPKcNS_12basic_stringIcSt11char_traitsIcESaIcEEEEESaINS_9sub_matchISA_EEEE9_M_suffixEv
	jmp	L534
L532:
	movl	-12(%ebp), %eax
	movl	%eax, %ecx
	call	__ZNKSt7__cxx1113match_resultsIN9__gnu_cxx17__normal_iteratorIPKcNS_12basic_stringIcSt11char_traitsIcESaIcEEEEESaINS_9sub_matchISA_EEEE16_M_unmatched_subEv
L534:
	leave
	.cfi_restore 5
	.cfi_def_cfa 4, 4
	ret
	.cfi_endproc
LFE5141:
	.section	.text$_ZNSt4pairIN9__gnu_cxx17__normal_iteratorIPKcNSt7__cxx1112basic_stringIcSt11char_traitsIcESaIcEEEEESA_EaSERKSB_,"x"
	.linkonce discard
	.align 2
	.globl	__ZNSt4pairIN9__gnu_cxx17__normal_iteratorIPKcNSt7__cxx1112basic_stringIcSt11char_traitsIcESaIcEEEEESA_EaSERKSB_
	.def	__ZNSt4pairIN9__gnu_cxx17__normal_iteratorIPKcNSt7__cxx1112basic_stringIcSt11char_traitsIcESaIcEEEEESA_EaSERKSB_;	.scl	2;	.type	32;	.endef
__ZNSt4pairIN9__gnu_cxx17__normal_iteratorIPKcNSt7__cxx1112basic_stringIcSt11char_traitsIcESaIcEEEEESA_EaSERKSB_:
LFB5142:
	.cfi_startproc
	pushl	%ebp
	.cfi_def_cfa_offset 8
	.cfi_offset 5, -8
	movl	%esp, %ebp
	.cfi_def_cfa_register 5
	subl	$4, %esp
	movl	%ecx, -4(%ebp)
	movl	-4(%ebp), %eax
	movl	8(%ebp), %edx
	movl	(%edx), %edx
	movl	%edx, (%eax)
	movl	-4(%ebp), %eax
	movl	8(%ebp), %edx
	movl	4(%edx), %edx
	movl	%edx, 4(%eax)
	movl	-4(%ebp), %eax
	leave
	.cfi_restore 5
	.cfi_def_cfa 4, 4
	ret	$4
	.cfi_endproc
LFE5142:
	.section	.text$_ZN9__gnu_cxxmiIPcNSt7__cxx1112basic_stringIcSt11char_traitsIcESaIcEEEEENS_17__normal_iteratorIT_T0_E15difference_typeERKSB_SE_,"x"
	.linkonce discard
	.globl	__ZN9__gnu_cxxmiIPcNSt7__cxx1112basic_stringIcSt11char_traitsIcESaIcEEEEENS_17__normal_iteratorIT_T0_E15difference_typeERKSB_SE_
	.def	__ZN9__gnu_cxxmiIPcNSt7__cxx1112basic_stringIcSt11char_traitsIcESaIcEEEEENS_17__normal_iteratorIT_T0_E15difference_typeERKSB_SE_;	.scl	2;	.type	32;	.endef
__ZN9__gnu_cxxmiIPcNSt7__cxx1112basic_stringIcSt11char_traitsIcESaIcEEEEENS_17__normal_iteratorIT_T0_E15difference_typeERKSB_SE_:
LFB5143:
	.cfi_startproc
	pushl	%ebp
	.cfi_def_cfa_offset 8
	.cfi_offset 5, -8
	movl	%esp, %ebp
	.cfi_def_cfa_register 5
	pushl	%ebx
	subl	$4, %esp
	.cfi_offset 3, -12
	movl	8(%ebp), %ecx
	call	__ZNK9__gnu_cxx17__normal_iteratorIPcNSt7__cxx1112basic_stringIcSt11char_traitsIcESaIcEEEE4baseEv
	movl	(%eax), %eax
	movl	%eax, %ebx
	movl	12(%ebp), %eax
	movl	%eax, %ecx
	call	__ZNK9__gnu_cxx17__normal_iteratorIPcNSt7__cxx1112basic_stringIcSt11char_traitsIcESaIcEEEE4baseEv
	movl	(%eax), %eax
	subl	%eax, %ebx
	movl	%ebx, %eax
	addl	$4, %esp
	popl	%ebx
	.cfi_restore 3
	popl	%ebp
	.cfi_restore 5
	.cfi_def_cfa 4, 4
	ret
	.cfi_endproc
LFE5143:
	.section	.text$_ZN9__gnu_cxx5__ops16_Iter_equals_valIKcEclINS_17__normal_iteratorIPcNSt7__cxx1112basic_stringIcSt11char_traitsIcESaIcEEEEEEEbT_,"x"
	.linkonce discard
	.align 2
	.globl	__ZN9__gnu_cxx5__ops16_Iter_equals_valIKcEclINS_17__normal_iteratorIPcNSt7__cxx1112basic_stringIcSt11char_traitsIcESaIcEEEEEEEbT_
	.def	__ZN9__gnu_cxx5__ops16_Iter_equals_valIKcEclINS_17__normal_iteratorIPcNSt7__cxx1112basic_stringIcSt11char_traitsIcESaIcEEEEEEEbT_;	.scl	2;	.type	32;	.endef
__ZN9__gnu_cxx5__ops16_Iter_equals_valIKcEclINS_17__normal_iteratorIPcNSt7__cxx1112basic_stringIcSt11char_traitsIcESaIcEEEEEEEbT_:
LFB5144:
	.cfi_startproc
	pushl	%ebp
	.cfi_def_cfa_offset 8
	.cfi_offset 5, -8
	movl	%esp, %ebp
	.cfi_def_cfa_register 5
	subl	$24, %esp
	movl	%ecx, -12(%ebp)
	leal	8(%ebp), %ecx
	call	__ZNK9__gnu_cxx17__normal_iteratorIPcNSt7__cxx1112basic_stringIcSt11char_traitsIcESaIcEEEEdeEv
	movzbl	(%eax), %edx
	movl	-12(%ebp), %eax
	movl	(%eax), %eax
	movzbl	(%eax), %eax
	cmpb	%al, %dl
	sete	%al
	leave
	.cfi_restore 5
	.cfi_def_cfa 4, 4
	ret	$4
	.cfi_endproc
LFE5144:
	.section	.text$_ZN9__gnu_cxx17__normal_iteratorIPcNSt7__cxx1112basic_stringIcSt11char_traitsIcESaIcEEEEppEv,"x"
	.linkonce discard
	.align 2
